
bomb:     file format elf32-i386


Disassembly of section .init:

080486f4 <_init>:
 80486f4:	53                   	push   %ebx
 80486f5:	83 ec 08             	sub    $0x8,%esp
 80486f8:	e8 13 02 00 00       	call   8048910 <__x86.get_pc_thunk.bx>
 80486fd:	81 c3 03 39 00 00    	add    $0x3903,%ebx
 8048703:	8b 83 fc ff ff ff    	mov    -0x4(%ebx),%eax
 8048709:	85 c0                	test   %eax,%eax
 804870b:	74 05                	je     8048712 <_init+0x1e>
 804870d:	e8 be 01 00 00       	call   80488d0 <__gmon_start__@plt>
 8048712:	83 c4 08             	add    $0x8,%esp
 8048715:	5b                   	pop    %ebx
 8048716:	c3                   	ret    

Disassembly of section .plt:

08048720 <.plt>:
 8048720:	ff 35 04 c0 04 08    	push   0x804c004
 8048726:	ff 25 08 c0 04 08    	jmp    *0x804c008
 804872c:	00 00                	add    %al,(%eax)
	...

08048730 <read@plt>:
 8048730:	ff 25 0c c0 04 08    	jmp    *0x804c00c
 8048736:	68 00 00 00 00       	push   $0x0
 804873b:	e9 e0 ff ff ff       	jmp    8048720 <.plt>

08048740 <fflush@plt>:
 8048740:	ff 25 10 c0 04 08    	jmp    *0x804c010
 8048746:	68 08 00 00 00       	push   $0x8
 804874b:	e9 d0 ff ff ff       	jmp    8048720 <.plt>

08048750 <fgets@plt>:
 8048750:	ff 25 14 c0 04 08    	jmp    *0x804c014
 8048756:	68 10 00 00 00       	push   $0x10
 804875b:	e9 c0 ff ff ff       	jmp    8048720 <.plt>

08048760 <signal@plt>:
 8048760:	ff 25 18 c0 04 08    	jmp    *0x804c018
 8048766:	68 18 00 00 00       	push   $0x18
 804876b:	e9 b0 ff ff ff       	jmp    8048720 <.plt>

08048770 <sleep@plt>:
 8048770:	ff 25 1c c0 04 08    	jmp    *0x804c01c
 8048776:	68 20 00 00 00       	push   $0x20
 804877b:	e9 a0 ff ff ff       	jmp    8048720 <.plt>

08048780 <alarm@plt>:
 8048780:	ff 25 20 c0 04 08    	jmp    *0x804c020
 8048786:	68 28 00 00 00       	push   $0x28
 804878b:	e9 90 ff ff ff       	jmp    8048720 <.plt>

08048790 <__stack_chk_fail@plt>:
 8048790:	ff 25 24 c0 04 08    	jmp    *0x804c024
 8048796:	68 30 00 00 00       	push   $0x30
 804879b:	e9 80 ff ff ff       	jmp    8048720 <.plt>

080487a0 <strcpy@plt>:
 80487a0:	ff 25 28 c0 04 08    	jmp    *0x804c028
 80487a6:	68 38 00 00 00       	push   $0x38
 80487ab:	e9 70 ff ff ff       	jmp    8048720 <.plt>

080487b0 <getenv@plt>:
 80487b0:	ff 25 2c c0 04 08    	jmp    *0x804c02c
 80487b6:	68 40 00 00 00       	push   $0x40
 80487bb:	e9 60 ff ff ff       	jmp    8048720 <.plt>

080487c0 <puts@plt>:
 80487c0:	ff 25 30 c0 04 08    	jmp    *0x804c030
 80487c6:	68 48 00 00 00       	push   $0x48
 80487cb:	e9 50 ff ff ff       	jmp    8048720 <.plt>

080487d0 <__memmove_chk@plt>:
 80487d0:	ff 25 34 c0 04 08    	jmp    *0x804c034
 80487d6:	68 50 00 00 00       	push   $0x50
 80487db:	e9 40 ff ff ff       	jmp    8048720 <.plt>

080487e0 <exit@plt>:
 80487e0:	ff 25 38 c0 04 08    	jmp    *0x804c038
 80487e6:	68 58 00 00 00       	push   $0x58
 80487eb:	e9 30 ff ff ff       	jmp    8048720 <.plt>

080487f0 <__libc_start_main@plt>:
 80487f0:	ff 25 3c c0 04 08    	jmp    *0x804c03c
 80487f6:	68 60 00 00 00       	push   $0x60
 80487fb:	e9 20 ff ff ff       	jmp    8048720 <.plt>

08048800 <write@plt>:
 8048800:	ff 25 40 c0 04 08    	jmp    *0x804c040
 8048806:	68 68 00 00 00       	push   $0x68
 804880b:	e9 10 ff ff ff       	jmp    8048720 <.plt>

08048810 <__isoc99_sscanf@plt>:
 8048810:	ff 25 44 c0 04 08    	jmp    *0x804c044
 8048816:	68 70 00 00 00       	push   $0x70
 804881b:	e9 00 ff ff ff       	jmp    8048720 <.plt>

08048820 <fopen@plt>:
 8048820:	ff 25 48 c0 04 08    	jmp    *0x804c048
 8048826:	68 78 00 00 00       	push   $0x78
 804882b:	e9 f0 fe ff ff       	jmp    8048720 <.plt>

08048830 <__errno_location@plt>:
 8048830:	ff 25 4c c0 04 08    	jmp    *0x804c04c
 8048836:	68 80 00 00 00       	push   $0x80
 804883b:	e9 e0 fe ff ff       	jmp    8048720 <.plt>

08048840 <__printf_chk@plt>:
 8048840:	ff 25 50 c0 04 08    	jmp    *0x804c050
 8048846:	68 88 00 00 00       	push   $0x88
 804884b:	e9 d0 fe ff ff       	jmp    8048720 <.plt>

08048850 <socket@plt>:
 8048850:	ff 25 54 c0 04 08    	jmp    *0x804c054
 8048856:	68 90 00 00 00       	push   $0x90
 804885b:	e9 c0 fe ff ff       	jmp    8048720 <.plt>

08048860 <__fprintf_chk@plt>:
 8048860:	ff 25 58 c0 04 08    	jmp    *0x804c058
 8048866:	68 98 00 00 00       	push   $0x98
 804886b:	e9 b0 fe ff ff       	jmp    8048720 <.plt>

08048870 <gethostbyname@plt>:
 8048870:	ff 25 5c c0 04 08    	jmp    *0x804c05c
 8048876:	68 a0 00 00 00       	push   $0xa0
 804887b:	e9 a0 fe ff ff       	jmp    8048720 <.plt>

08048880 <strtol@plt>:
 8048880:	ff 25 60 c0 04 08    	jmp    *0x804c060
 8048886:	68 a8 00 00 00       	push   $0xa8
 804888b:	e9 90 fe ff ff       	jmp    8048720 <.plt>

08048890 <connect@plt>:
 8048890:	ff 25 64 c0 04 08    	jmp    *0x804c064
 8048896:	68 b0 00 00 00       	push   $0xb0
 804889b:	e9 80 fe ff ff       	jmp    8048720 <.plt>

080488a0 <close@plt>:
 80488a0:	ff 25 68 c0 04 08    	jmp    *0x804c068
 80488a6:	68 b8 00 00 00       	push   $0xb8
 80488ab:	e9 70 fe ff ff       	jmp    8048720 <.plt>

080488b0 <__ctype_b_loc@plt>:
 80488b0:	ff 25 6c c0 04 08    	jmp    *0x804c06c
 80488b6:	68 c0 00 00 00       	push   $0xc0
 80488bb:	e9 60 fe ff ff       	jmp    8048720 <.plt>

080488c0 <__sprintf_chk@plt>:
 80488c0:	ff 25 70 c0 04 08    	jmp    *0x804c070
 80488c6:	68 c8 00 00 00       	push   $0xc8
 80488cb:	e9 50 fe ff ff       	jmp    8048720 <.plt>

Disassembly of section .plt.got:

080488d0 <__gmon_start__@plt>:
 80488d0:	ff 25 fc bf 04 08    	jmp    *0x804bffc
 80488d6:	66 90                	xchg   %ax,%ax

Disassembly of section .text:

080488e0 <_start>:
 80488e0:	31 ed                	xor    %ebp,%ebp
 80488e2:	5e                   	pop    %esi
 80488e3:	89 e1                	mov    %esp,%ecx
 80488e5:	83 e4 f0             	and    $0xfffffff0,%esp
 80488e8:	50                   	push   %eax
 80488e9:	54                   	push   %esp
 80488ea:	52                   	push   %edx
 80488eb:	68 a0 9e 04 08       	push   $0x8049ea0
 80488f0:	68 40 9e 04 08       	push   $0x8049e40
 80488f5:	51                   	push   %ecx
 80488f6:	56                   	push   %esi
 80488f7:	68 db 89 04 08       	push   $0x80489db
 80488fc:	e8 ef fe ff ff       	call   80487f0 <__libc_start_main@plt>
 8048901:	f4                   	hlt    
 8048902:	66 90                	xchg   %ax,%ax
 8048904:	66 90                	xchg   %ax,%ax
 8048906:	66 90                	xchg   %ax,%ax
 8048908:	66 90                	xchg   %ax,%ax
 804890a:	66 90                	xchg   %ax,%ax
 804890c:	66 90                	xchg   %ax,%ax
 804890e:	66 90                	xchg   %ax,%ax

08048910 <__x86.get_pc_thunk.bx>:
 8048910:	8b 1c 24             	mov    (%esp),%ebx
 8048913:	c3                   	ret    
 8048914:	66 90                	xchg   %ax,%ax
 8048916:	66 90                	xchg   %ax,%ax
 8048918:	66 90                	xchg   %ax,%ax
 804891a:	66 90                	xchg   %ax,%ax
 804891c:	66 90                	xchg   %ax,%ax
 804891e:	66 90                	xchg   %ax,%ax

08048920 <deregister_tm_clones>:
 8048920:	b8 a3 c3 04 08       	mov    $0x804c3a3,%eax
 8048925:	2d a0 c3 04 08       	sub    $0x804c3a0,%eax
 804892a:	83 f8 06             	cmp    $0x6,%eax
 804892d:	76 1a                	jbe    8048949 <deregister_tm_clones+0x29>
 804892f:	b8 00 00 00 00       	mov    $0x0,%eax
 8048934:	85 c0                	test   %eax,%eax
 8048936:	74 11                	je     8048949 <deregister_tm_clones+0x29>
 8048938:	55                   	push   %ebp
 8048939:	89 e5                	mov    %esp,%ebp
 804893b:	83 ec 14             	sub    $0x14,%esp
 804893e:	68 a0 c3 04 08       	push   $0x804c3a0
 8048943:	ff d0                	call   *%eax
 8048945:	83 c4 10             	add    $0x10,%esp
 8048948:	c9                   	leave  
 8048949:	f3 c3                	repz ret 
 804894b:	90                   	nop
 804894c:	8d 74 26 00          	lea    0x0(%esi,%eiz,1),%esi

08048950 <register_tm_clones>:
 8048950:	b8 a0 c3 04 08       	mov    $0x804c3a0,%eax
 8048955:	2d a0 c3 04 08       	sub    $0x804c3a0,%eax
 804895a:	c1 f8 02             	sar    $0x2,%eax
 804895d:	89 c2                	mov    %eax,%edx
 804895f:	c1 ea 1f             	shr    $0x1f,%edx
 8048962:	01 d0                	add    %edx,%eax
 8048964:	d1 f8                	sar    %eax
 8048966:	74 1b                	je     8048983 <register_tm_clones+0x33>
 8048968:	ba 00 00 00 00       	mov    $0x0,%edx
 804896d:	85 d2                	test   %edx,%edx
 804896f:	74 12                	je     8048983 <register_tm_clones+0x33>
 8048971:	55                   	push   %ebp
 8048972:	89 e5                	mov    %esp,%ebp
 8048974:	83 ec 10             	sub    $0x10,%esp
 8048977:	50                   	push   %eax
 8048978:	68 a0 c3 04 08       	push   $0x804c3a0
 804897d:	ff d2                	call   *%edx
 804897f:	83 c4 10             	add    $0x10,%esp
 8048982:	c9                   	leave  
 8048983:	f3 c3                	repz ret 
 8048985:	8d 74 26 00          	lea    0x0(%esi,%eiz,1),%esi
 8048989:	8d bc 27 00 00 00 00 	lea    0x0(%edi,%eiz,1),%edi

08048990 <__do_global_dtors_aux>:
 8048990:	80 3d c8 c3 04 08 00 	cmpb   $0x0,0x804c3c8
 8048997:	75 13                	jne    80489ac <__do_global_dtors_aux+0x1c>
 8048999:	55                   	push   %ebp
 804899a:	89 e5                	mov    %esp,%ebp
 804899c:	83 ec 08             	sub    $0x8,%esp
 804899f:	e8 7c ff ff ff       	call   8048920 <deregister_tm_clones>
 80489a4:	c6 05 c8 c3 04 08 01 	movb   $0x1,0x804c3c8
 80489ab:	c9                   	leave  
 80489ac:	f3 c3                	repz ret 
 80489ae:	66 90                	xchg   %ax,%ax

080489b0 <frame_dummy>:
 80489b0:	b8 10 bf 04 08       	mov    $0x804bf10,%eax
 80489b5:	8b 10                	mov    (%eax),%edx
 80489b7:	85 d2                	test   %edx,%edx
 80489b9:	75 05                	jne    80489c0 <frame_dummy+0x10>
 80489bb:	eb 93                	jmp    8048950 <register_tm_clones>
 80489bd:	8d 76 00             	lea    0x0(%esi),%esi
 80489c0:	ba 00 00 00 00       	mov    $0x0,%edx
 80489c5:	85 d2                	test   %edx,%edx
 80489c7:	74 f2                	je     80489bb <frame_dummy+0xb>
 80489c9:	55                   	push   %ebp
 80489ca:	89 e5                	mov    %esp,%ebp
 80489cc:	83 ec 14             	sub    $0x14,%esp
 80489cf:	50                   	push   %eax
 80489d0:	ff d2                	call   *%edx
 80489d2:	83 c4 10             	add    $0x10,%esp
 80489d5:	c9                   	leave  
 80489d6:	e9 75 ff ff ff       	jmp    8048950 <register_tm_clones>

080489db <main>:
 80489db:	8d 4c 24 04          	lea    0x4(%esp),%ecx
 80489df:	83 e4 f0             	and    $0xfffffff0,%esp
 80489e2:	ff 71 fc             	push   -0x4(%ecx)
 80489e5:	55                   	push   %ebp
 80489e6:	89 e5                	mov    %esp,%ebp
 80489e8:	53                   	push   %ebx
 80489e9:	51                   	push   %ecx
 80489ea:	8b 01                	mov    (%ecx),%eax
 80489ec:	8b 59 04             	mov    0x4(%ecx),%ebx
 80489ef:	83 f8 01             	cmp    $0x1,%eax
 80489f2:	0f 84 01 01 00 00    	je     8048af9 <main+0x11e>
 80489f8:	83 f8 02             	cmp    $0x2,%eax
 80489fb:	0f 85 24 01 00 00    	jne    8048b25 <main+0x14a>
 8048a01:	83 ec 08             	sub    $0x8,%esp
 8048a04:	68 c0 9e 04 08       	push   $0x8049ec0
 8048a09:	ff 73 04             	push   0x4(%ebx)
 8048a0c:	e8 0f fe ff ff       	call   8048820 <fopen@plt>
 8048a11:	a3 d0 c3 04 08       	mov    %eax,0x804c3d0
 8048a16:	83 c4 10             	add    $0x10,%esp
 8048a19:	85 c0                	test   %eax,%eax
 8048a1b:	0f 84 e7 00 00 00    	je     8048b08 <main+0x12d>
 8048a21:	e8 3a 06 00 00       	call   8049060 <initialize_bomb>
 8048a26:	83 ec 0c             	sub    $0xc,%esp
 8048a29:	68 44 9f 04 08       	push   $0x8049f44
 8048a2e:	e8 8d fd ff ff       	call   80487c0 <puts@plt>
 8048a33:	c7 04 24 80 9f 04 08 	movl   $0x8049f80,(%esp)
 8048a3a:	e8 81 fd ff ff       	call   80487c0 <puts@plt>
 8048a3f:	e8 0c 07 00 00       	call   8049150 <read_line>
 8048a44:	89 04 24             	mov    %eax,(%esp)
 8048a47:	e8 f6 00 00 00       	call   8048b42 <phase_1>
 8048a4c:	e8 fe 07 00 00       	call   804924f <phase_defused>
 8048a51:	c7 04 24 ac 9f 04 08 	movl   $0x8049fac,(%esp)
 8048a58:	e8 63 fd ff ff       	call   80487c0 <puts@plt>
 8048a5d:	e8 ee 06 00 00       	call   8049150 <read_line>
 8048a62:	89 04 24             	mov    %eax,(%esp)
 8048a65:	e8 fb 00 00 00       	call   8048b65 <phase_2>
 8048a6a:	e8 e0 07 00 00       	call   804924f <phase_defused>
 8048a6f:	c7 04 24 f9 9e 04 08 	movl   $0x8049ef9,(%esp)
 8048a76:	e8 45 fd ff ff       	call   80487c0 <puts@plt>
 8048a7b:	e8 d0 06 00 00       	call   8049150 <read_line>
 8048a80:	89 04 24             	mov    %eax,(%esp)
 8048a83:	e8 44 01 00 00       	call   8048bcc <phase_3>
 8048a88:	e8 c2 07 00 00       	call   804924f <phase_defused>
 8048a8d:	c7 04 24 17 9f 04 08 	movl   $0x8049f17,(%esp)
 8048a94:	e8 27 fd ff ff       	call   80487c0 <puts@plt>
 8048a99:	e8 b2 06 00 00       	call   8049150 <read_line>
 8048a9e:	89 04 24             	mov    %eax,(%esp)
 8048aa1:	e8 14 02 00 00       	call   8048cba <phase_4>
 8048aa6:	e8 a4 07 00 00       	call   804924f <phase_defused>
 8048aab:	c7 04 24 d8 9f 04 08 	movl   $0x8049fd8,(%esp)
 8048ab2:	e8 09 fd ff ff       	call   80487c0 <puts@plt>
 8048ab7:	e8 94 06 00 00       	call   8049150 <read_line>
 8048abc:	89 04 24             	mov    %eax,(%esp)
 8048abf:	e8 6a 02 00 00       	call   8048d2e <phase_5>
 8048ac4:	e8 86 07 00 00       	call   804924f <phase_defused>
 8048ac9:	c7 04 24 26 9f 04 08 	movl   $0x8049f26,(%esp)
 8048ad0:	e8 eb fc ff ff       	call   80487c0 <puts@plt>
 8048ad5:	e8 76 06 00 00       	call   8049150 <read_line>
 8048ada:	89 04 24             	mov    %eax,(%esp)
 8048add:	e8 ce 02 00 00       	call   8048db0 <phase_6>
 8048ae2:	e8 68 07 00 00       	call   804924f <phase_defused>
 8048ae7:	83 c4 10             	add    $0x10,%esp
 8048aea:	b8 00 00 00 00       	mov    $0x0,%eax
 8048aef:	8d 65 f8             	lea    -0x8(%ebp),%esp
 8048af2:	59                   	pop    %ecx
 8048af3:	5b                   	pop    %ebx
 8048af4:	5d                   	pop    %ebp
 8048af5:	8d 61 fc             	lea    -0x4(%ecx),%esp
 8048af8:	c3                   	ret    
 8048af9:	a1 c0 c3 04 08       	mov    0x804c3c0,%eax
 8048afe:	a3 d0 c3 04 08       	mov    %eax,0x804c3d0
 8048b03:	e9 19 ff ff ff       	jmp    8048a21 <main+0x46>
 8048b08:	ff 73 04             	push   0x4(%ebx)
 8048b0b:	ff 33                	push   (%ebx)
 8048b0d:	68 c2 9e 04 08       	push   $0x8049ec2
 8048b12:	6a 01                	push   $0x1
 8048b14:	e8 27 fd ff ff       	call   8048840 <__printf_chk@plt>
 8048b19:	c7 04 24 08 00 00 00 	movl   $0x8,(%esp)
 8048b20:	e8 bb fc ff ff       	call   80487e0 <exit@plt>
 8048b25:	83 ec 04             	sub    $0x4,%esp
 8048b28:	ff 33                	push   (%ebx)
 8048b2a:	68 df 9e 04 08       	push   $0x8049edf
 8048b2f:	6a 01                	push   $0x1
 8048b31:	e8 0a fd ff ff       	call   8048840 <__printf_chk@plt>
 8048b36:	c7 04 24 08 00 00 00 	movl   $0x8,(%esp)
 8048b3d:	e8 9e fc ff ff       	call   80487e0 <exit@plt>

08048b42 <phase_1>:
 8048b42:	83 ec 14             	sub    $0x14,%esp
 8048b45:	68 fc 9f 04 08       	push   $0x8049ffc
 8048b4a:	ff 74 24 1c          	push   0x1c(%esp)
 8048b4e:	e8 a8 04 00 00       	call   8048ffb <strings_not_equal>
 8048b53:	83 c4 10             	add    $0x10,%esp
 8048b56:	85 c0                	test   %eax,%eax
 8048b58:	75 04                	jne    8048b5e <phase_1+0x1c>
 8048b5a:	83 c4 0c             	add    $0xc,%esp
 8048b5d:	c3                   	ret    
 8048b5e:	e8 8d 05 00 00       	call   80490f0 <explode_bomb>
 8048b63:	eb f5                	jmp    8048b5a <phase_1+0x18>

08048b65 <phase_2>:
 8048b65:	53                   	push   %ebx
 8048b66:	83 ec 30             	sub    $0x30,%esp
 8048b69:	65 a1 14 00 00 00    	mov    %gs:0x14,%eax
 8048b6f:	89 44 24 24          	mov    %eax,0x24(%esp)
 8048b73:	31 c0                	xor    %eax,%eax
 8048b75:	8d 44 24 0c          	lea    0xc(%esp),%eax
 8048b79:	50                   	push   %eax
 8048b7a:	ff 74 24 3c          	push   0x3c(%esp)
 8048b7e:	e8 92 05 00 00       	call   8049115 <read_six_numbers>
 8048b83:	83 c4 10             	add    $0x10,%esp
 8048b86:	83 7c 24 04 00       	cmpl   $0x0,0x4(%esp)
 8048b8b:	78 07                	js     8048b94 <phase_2+0x2f>
 8048b8d:	bb 01 00 00 00       	mov    $0x1,%ebx
 8048b92:	eb 0f                	jmp    8048ba3 <phase_2+0x3e>
 8048b94:	e8 57 05 00 00       	call   80490f0 <explode_bomb>
 8048b99:	eb f2                	jmp    8048b8d <phase_2+0x28>
 8048b9b:	83 c3 01             	add    $0x1,%ebx
 8048b9e:	83 fb 06             	cmp    $0x6,%ebx
 8048ba1:	74 12                	je     8048bb5 <phase_2+0x50>
 8048ba3:	89 d8                	mov    %ebx,%eax
 8048ba5:	03 04 9c             	add    (%esp,%ebx,4),%eax
 8048ba8:	39 44 9c 04          	cmp    %eax,0x4(%esp,%ebx,4)
 8048bac:	74 ed                	je     8048b9b <phase_2+0x36>
 8048bae:	e8 3d 05 00 00       	call   80490f0 <explode_bomb>
 8048bb3:	eb e6                	jmp    8048b9b <phase_2+0x36>
 8048bb5:	8b 44 24 1c          	mov    0x1c(%esp),%eax
 8048bb9:	65 33 05 14 00 00 00 	xor    %gs:0x14,%eax
 8048bc0:	75 05                	jne    8048bc7 <phase_2+0x62>
 8048bc2:	83 c4 28             	add    $0x28,%esp
 8048bc5:	5b                   	pop    %ebx
 8048bc6:	c3                   	ret    
 8048bc7:	e8 c4 fb ff ff       	call   8048790 <__stack_chk_fail@plt>

08048bcc <phase_3>:
 8048bcc:	83 ec 1c             	sub    $0x1c,%esp
 8048bcf:	65 a1 14 00 00 00    	mov    %gs:0x14,%eax
 8048bd5:	89 44 24 0c          	mov    %eax,0xc(%esp)
 8048bd9:	31 c0                	xor    %eax,%eax
 8048bdb:	8d 44 24 08          	lea    0x8(%esp),%eax
 8048bdf:	50                   	push   %eax
 8048be0:	8d 44 24 08          	lea    0x8(%esp),%eax
 8048be4:	50                   	push   %eax
 8048be5:	68 9b a1 04 08       	push   $0x804a19b
 8048bea:	ff 74 24 2c          	push   0x2c(%esp)
 8048bee:	e8 1d fc ff ff       	call   8048810 <__isoc99_sscanf@plt>
 8048bf3:	83 c4 10             	add    $0x10,%esp
 8048bf6:	83 f8 01             	cmp    $0x1,%eax
 8048bf9:	7e 12                	jle    8048c0d <phase_3+0x41>
 8048bfb:	83 7c 24 04 07       	cmpl   $0x7,0x4(%esp)
 8048c00:	77 43                	ja     8048c45 <phase_3+0x79>
 8048c02:	8b 44 24 04          	mov    0x4(%esp),%eax
 8048c06:	ff 24 85 5c a0 04 08 	jmp    *0x804a05c(,%eax,4)
 8048c0d:	e8 de 04 00 00       	call   80490f0 <explode_bomb>
 8048c12:	eb e7                	jmp    8048bfb <phase_3+0x2f>
 8048c14:	b8 a5 02 00 00       	mov    $0x2a5,%eax
 8048c19:	eb 3b                	jmp    8048c56 <phase_3+0x8a>
 8048c1b:	b8 8b 00 00 00       	mov    $0x8b,%eax
 8048c20:	eb 34                	jmp    8048c56 <phase_3+0x8a>
 8048c22:	b8 dd 00 00 00       	mov    $0xdd,%eax
 8048c27:	eb 2d                	jmp    8048c56 <phase_3+0x8a>
 8048c29:	b8 35 03 00 00       	mov    $0x335,%eax
 8048c2e:	eb 26                	jmp    8048c56 <phase_3+0x8a>
 8048c30:	b8 21 03 00 00       	mov    $0x321,%eax
 8048c35:	eb 1f                	jmp    8048c56 <phase_3+0x8a>
 8048c37:	b8 30 01 00 00       	mov    $0x130,%eax
 8048c3c:	eb 18                	jmp    8048c56 <phase_3+0x8a>
 8048c3e:	b8 c8 01 00 00       	mov    $0x1c8,%eax
 8048c43:	eb 11                	jmp    8048c56 <phase_3+0x8a>
 8048c45:	e8 a6 04 00 00       	call   80490f0 <explode_bomb>
 8048c4a:	b8 00 00 00 00       	mov    $0x0,%eax
 8048c4f:	eb 05                	jmp    8048c56 <phase_3+0x8a>
 8048c51:	b8 84 02 00 00       	mov    $0x284,%eax
 8048c56:	3b 44 24 08          	cmp    0x8(%esp),%eax
 8048c5a:	74 05                	je     8048c61 <phase_3+0x95>
 8048c5c:	e8 8f 04 00 00       	call   80490f0 <explode_bomb>
 8048c61:	8b 44 24 0c          	mov    0xc(%esp),%eax
 8048c65:	65 33 05 14 00 00 00 	xor    %gs:0x14,%eax
 8048c6c:	75 04                	jne    8048c72 <phase_3+0xa6>
 8048c6e:	83 c4 1c             	add    $0x1c,%esp
 8048c71:	c3                   	ret    
 8048c72:	e8 19 fb ff ff       	call   8048790 <__stack_chk_fail@plt>

08048c77 <func4>:
 8048c77:	57                   	push   %edi
 8048c78:	56                   	push   %esi
 8048c79:	53                   	push   %ebx
 8048c7a:	8b 5c 24 10          	mov    0x10(%esp),%ebx
 8048c7e:	8b 7c 24 14          	mov    0x14(%esp),%edi
 8048c82:	85 db                	test   %ebx,%ebx
 8048c84:	7e 2d                	jle    8048cb3 <func4+0x3c>
 8048c86:	89 f8                	mov    %edi,%eax
 8048c88:	83 fb 01             	cmp    $0x1,%ebx
 8048c8b:	74 22                	je     8048caf <func4+0x38>
 8048c8d:	83 ec 08             	sub    $0x8,%esp
 8048c90:	57                   	push   %edi
 8048c91:	8d 43 ff             	lea    -0x1(%ebx),%eax
 8048c94:	50                   	push   %eax
 8048c95:	e8 dd ff ff ff       	call   8048c77 <func4>
 8048c9a:	83 c4 08             	add    $0x8,%esp
 8048c9d:	8d 34 07             	lea    (%edi,%eax,1),%esi
 8048ca0:	57                   	push   %edi
 8048ca1:	83 eb 02             	sub    $0x2,%ebx
 8048ca4:	53                   	push   %ebx
 8048ca5:	e8 cd ff ff ff       	call   8048c77 <func4>
 8048caa:	83 c4 10             	add    $0x10,%esp
 8048cad:	01 f0                	add    %esi,%eax
 8048caf:	5b                   	pop    %ebx
 8048cb0:	5e                   	pop    %esi
 8048cb1:	5f                   	pop    %edi
 8048cb2:	c3                   	ret    
 8048cb3:	b8 00 00 00 00       	mov    $0x0,%eax
 8048cb8:	eb f5                	jmp    8048caf <func4+0x38>

08048cba <phase_4>:
 8048cba:	83 ec 1c             	sub    $0x1c,%esp
 8048cbd:	65 a1 14 00 00 00    	mov    %gs:0x14,%eax
 8048cc3:	89 44 24 0c          	mov    %eax,0xc(%esp)
 8048cc7:	31 c0                	xor    %eax,%eax
 8048cc9:	8d 44 24 04          	lea    0x4(%esp),%eax
 8048ccd:	50                   	push   %eax
 8048cce:	8d 44 24 0c          	lea    0xc(%esp),%eax
 8048cd2:	50                   	push   %eax
 8048cd3:	68 9b a1 04 08       	push   $0x804a19b
 8048cd8:	ff 74 24 2c          	push   0x2c(%esp)
 8048cdc:	e8 2f fb ff ff       	call   8048810 <__isoc99_sscanf@plt>
 8048ce1:	83 c4 10             	add    $0x10,%esp
 8048ce4:	83 f8 02             	cmp    $0x2,%eax
 8048ce7:	74 32                	je     8048d1b <phase_4+0x61>
 8048ce9:	e8 02 04 00 00       	call   80490f0 <explode_bomb>
 8048cee:	83 ec 08             	sub    $0x8,%esp
 8048cf1:	ff 74 24 0c          	push   0xc(%esp)
 8048cf5:	6a 08                	push   $0x8
 8048cf7:	e8 7b ff ff ff       	call   8048c77 <func4>
 8048cfc:	83 c4 10             	add    $0x10,%esp
 8048cff:	3b 44 24 08          	cmp    0x8(%esp),%eax
 8048d03:	74 05                	je     8048d0a <phase_4+0x50>
 8048d05:	e8 e6 03 00 00       	call   80490f0 <explode_bomb>
 8048d0a:	8b 44 24 0c          	mov    0xc(%esp),%eax
 8048d0e:	65 33 05 14 00 00 00 	xor    %gs:0x14,%eax
 8048d15:	75 12                	jne    8048d29 <phase_4+0x6f>
 8048d17:	83 c4 1c             	add    $0x1c,%esp
 8048d1a:	c3                   	ret    
 8048d1b:	8b 44 24 04          	mov    0x4(%esp),%eax
 8048d1f:	83 e8 02             	sub    $0x2,%eax
 8048d22:	83 f8 02             	cmp    $0x2,%eax
 8048d25:	76 c7                	jbe    8048cee <phase_4+0x34>
 8048d27:	eb c0                	jmp    8048ce9 <phase_4+0x2f>
 8048d29:	e8 62 fa ff ff       	call   8048790 <__stack_chk_fail@plt>

08048d2e <phase_5>:
 8048d2e:	53                   	push   %ebx
 8048d2f:	83 ec 24             	sub    $0x24,%esp
 8048d32:	8b 5c 24 2c          	mov    0x2c(%esp),%ebx
 8048d36:	65 a1 14 00 00 00    	mov    %gs:0x14,%eax
 8048d3c:	89 44 24 18          	mov    %eax,0x18(%esp)
 8048d40:	31 c0                	xor    %eax,%eax
 8048d42:	53                   	push   %ebx
 8048d43:	e8 94 02 00 00       	call   8048fdc <string_length>
 8048d48:	83 c4 10             	add    $0x10,%esp
 8048d4b:	83 f8 06             	cmp    $0x6,%eax
 8048d4e:	74 05                	je     8048d55 <phase_5+0x27>
 8048d50:	e8 9b 03 00 00       	call   80490f0 <explode_bomb>
 8048d55:	b8 00 00 00 00       	mov    $0x0,%eax
 8048d5a:	0f b6 14 03          	movzbl (%ebx,%eax,1),%edx
 8048d5e:	83 e2 0f             	and    $0xf,%edx
 8048d61:	0f b6 92 7c a0 04 08 	movzbl 0x804a07c(%edx),%edx
 8048d68:	88 54 04 05          	mov    %dl,0x5(%esp,%eax,1)
 8048d6c:	83 c0 01             	add    $0x1,%eax
 8048d6f:	83 f8 06             	cmp    $0x6,%eax
 8048d72:	75 e6                	jne    8048d5a <phase_5+0x2c>
 8048d74:	c6 44 24 0b 00       	movb   $0x0,0xb(%esp)
 8048d79:	83 ec 08             	sub    $0x8,%esp
 8048d7c:	68 52 a0 04 08       	push   $0x804a052
 8048d81:	8d 44 24 11          	lea    0x11(%esp),%eax
 8048d85:	50                   	push   %eax
 8048d86:	e8 70 02 00 00       	call   8048ffb <strings_not_equal>
 8048d8b:	83 c4 10             	add    $0x10,%esp
 8048d8e:	85 c0                	test   %eax,%eax
 8048d90:	75 12                	jne    8048da4 <phase_5+0x76>
 8048d92:	8b 44 24 0c          	mov    0xc(%esp),%eax
 8048d96:	65 33 05 14 00 00 00 	xor    %gs:0x14,%eax
 8048d9d:	75 0c                	jne    8048dab <phase_5+0x7d>
 8048d9f:	83 c4 18             	add    $0x18,%esp
 8048da2:	5b                   	pop    %ebx
 8048da3:	c3                   	ret    
 8048da4:	e8 47 03 00 00       	call   80490f0 <explode_bomb>
 8048da9:	eb e7                	jmp    8048d92 <phase_5+0x64>
 8048dab:	e8 e0 f9 ff ff       	call   8048790 <__stack_chk_fail@plt>

08048db0 <phase_6>:
 8048db0:	56                   	push   %esi
 8048db1:	53                   	push   %ebx
 8048db2:	83 ec 4c             	sub    $0x4c,%esp
 8048db5:	65 a1 14 00 00 00    	mov    %gs:0x14,%eax
 8048dbb:	89 44 24 44          	mov    %eax,0x44(%esp)
 8048dbf:	31 c0                	xor    %eax,%eax
 8048dc1:	8d 44 24 14          	lea    0x14(%esp),%eax
 8048dc5:	50                   	push   %eax
 8048dc6:	ff 74 24 5c          	push   0x5c(%esp)
 8048dca:	e8 46 03 00 00       	call   8049115 <read_six_numbers>
 8048dcf:	83 c4 10             	add    $0x10,%esp
 8048dd2:	be 00 00 00 00       	mov    $0x0,%esi
 8048dd7:	eb 1c                	jmp    8048df5 <phase_6+0x45>
 8048dd9:	83 c6 01             	add    $0x1,%esi
 8048ddc:	83 fe 06             	cmp    $0x6,%esi
 8048ddf:	74 2e                	je     8048e0f <phase_6+0x5f>
 8048de1:	89 f3                	mov    %esi,%ebx
 8048de3:	8b 44 9c 0c          	mov    0xc(%esp,%ebx,4),%eax
 8048de7:	39 44 b4 08          	cmp    %eax,0x8(%esp,%esi,4)
 8048deb:	74 1b                	je     8048e08 <phase_6+0x58>
 8048ded:	83 c3 01             	add    $0x1,%ebx
 8048df0:	83 fb 05             	cmp    $0x5,%ebx
 8048df3:	7e ee                	jle    8048de3 <phase_6+0x33>
 8048df5:	8b 44 b4 0c          	mov    0xc(%esp,%esi,4),%eax
 8048df9:	83 e8 01             	sub    $0x1,%eax
 8048dfc:	83 f8 05             	cmp    $0x5,%eax
 8048dff:	76 d8                	jbe    8048dd9 <phase_6+0x29>
 8048e01:	e8 ea 02 00 00       	call   80490f0 <explode_bomb>
 8048e06:	eb d1                	jmp    8048dd9 <phase_6+0x29>
 8048e08:	e8 e3 02 00 00       	call   80490f0 <explode_bomb>
 8048e0d:	eb de                	jmp    8048ded <phase_6+0x3d>
 8048e0f:	8d 44 24 0c          	lea    0xc(%esp),%eax
 8048e13:	8d 5c 24 24          	lea    0x24(%esp),%ebx
 8048e17:	b9 07 00 00 00       	mov    $0x7,%ecx
 8048e1c:	89 ca                	mov    %ecx,%edx
 8048e1e:	2b 10                	sub    (%eax),%edx
 8048e20:	89 10                	mov    %edx,(%eax)
 8048e22:	83 c0 04             	add    $0x4,%eax
 8048e25:	39 c3                	cmp    %eax,%ebx
 8048e27:	75 f3                	jne    8048e1c <phase_6+0x6c>
 8048e29:	bb 00 00 00 00       	mov    $0x0,%ebx
 8048e2e:	89 de                	mov    %ebx,%esi
 8048e30:	8b 4c 9c 0c          	mov    0xc(%esp,%ebx,4),%ecx
 8048e34:	b8 01 00 00 00       	mov    $0x1,%eax
 8048e39:	ba 3c c1 04 08       	mov    $0x804c13c,%edx
 8048e3e:	83 f9 01             	cmp    $0x1,%ecx
 8048e41:	7e 0a                	jle    8048e4d <phase_6+0x9d>
 8048e43:	8b 52 08             	mov    0x8(%edx),%edx
 8048e46:	83 c0 01             	add    $0x1,%eax
 8048e49:	39 c8                	cmp    %ecx,%eax
 8048e4b:	75 f6                	jne    8048e43 <phase_6+0x93>
 8048e4d:	89 54 b4 24          	mov    %edx,0x24(%esp,%esi,4)
 8048e51:	83 c3 01             	add    $0x1,%ebx
 8048e54:	83 fb 06             	cmp    $0x6,%ebx
 8048e57:	75 d5                	jne    8048e2e <phase_6+0x7e>
 8048e59:	8b 5c 24 24          	mov    0x24(%esp),%ebx
 8048e5d:	89 d9                	mov    %ebx,%ecx
 8048e5f:	b8 01 00 00 00       	mov    $0x1,%eax
 8048e64:	8b 54 84 24          	mov    0x24(%esp,%eax,4),%edx
 8048e68:	89 51 08             	mov    %edx,0x8(%ecx)
 8048e6b:	83 c0 01             	add    $0x1,%eax
 8048e6e:	89 d1                	mov    %edx,%ecx
 8048e70:	83 f8 06             	cmp    $0x6,%eax
 8048e73:	75 ef                	jne    8048e64 <phase_6+0xb4>
 8048e75:	c7 42 08 00 00 00 00 	movl   $0x0,0x8(%edx)
 8048e7c:	be 05 00 00 00       	mov    $0x5,%esi
 8048e81:	eb 08                	jmp    8048e8b <phase_6+0xdb>
 8048e83:	8b 5b 08             	mov    0x8(%ebx),%ebx
 8048e86:	83 ee 01             	sub    $0x1,%esi
 8048e89:	74 10                	je     8048e9b <phase_6+0xeb>
 8048e8b:	8b 43 08             	mov    0x8(%ebx),%eax
 8048e8e:	8b 00                	mov    (%eax),%eax
 8048e90:	39 03                	cmp    %eax,(%ebx)
 8048e92:	7d ef                	jge    8048e83 <phase_6+0xd3>
 8048e94:	e8 57 02 00 00       	call   80490f0 <explode_bomb>
 8048e99:	eb e8                	jmp    8048e83 <phase_6+0xd3>
 8048e9b:	8b 44 24 3c          	mov    0x3c(%esp),%eax
 8048e9f:	65 33 05 14 00 00 00 	xor    %gs:0x14,%eax
 8048ea6:	75 06                	jne    8048eae <phase_6+0xfe>
 8048ea8:	83 c4 44             	add    $0x44,%esp
 8048eab:	5b                   	pop    %ebx
 8048eac:	5e                   	pop    %esi
 8048ead:	c3                   	ret    
 8048eae:	e8 dd f8 ff ff       	call   8048790 <__stack_chk_fail@plt>

08048eb3 <fun7>:
 8048eb3:	53                   	push   %ebx
 8048eb4:	83 ec 08             	sub    $0x8,%esp
 8048eb7:	8b 54 24 10          	mov    0x10(%esp),%edx
 8048ebb:	8b 4c 24 14          	mov    0x14(%esp),%ecx
 8048ebf:	85 d2                	test   %edx,%edx
 8048ec1:	74 3a                	je     8048efd <fun7+0x4a>
 8048ec3:	8b 1a                	mov    (%edx),%ebx
 8048ec5:	39 cb                	cmp    %ecx,%ebx
 8048ec7:	7f 21                	jg     8048eea <fun7+0x37>
 8048ec9:	b8 00 00 00 00       	mov    $0x0,%eax
 8048ece:	39 cb                	cmp    %ecx,%ebx
 8048ed0:	74 13                	je     8048ee5 <fun7+0x32>
 8048ed2:	83 ec 08             	sub    $0x8,%esp
 8048ed5:	51                   	push   %ecx
 8048ed6:	ff 72 08             	push   0x8(%edx)
 8048ed9:	e8 d5 ff ff ff       	call   8048eb3 <fun7>
 8048ede:	83 c4 10             	add    $0x10,%esp
 8048ee1:	8d 44 00 01          	lea    0x1(%eax,%eax,1),%eax
 8048ee5:	83 c4 08             	add    $0x8,%esp
 8048ee8:	5b                   	pop    %ebx
 8048ee9:	c3                   	ret    
 8048eea:	83 ec 08             	sub    $0x8,%esp
 8048eed:	51                   	push   %ecx
 8048eee:	ff 72 04             	push   0x4(%edx)
 8048ef1:	e8 bd ff ff ff       	call   8048eb3 <fun7>
 8048ef6:	83 c4 10             	add    $0x10,%esp
 8048ef9:	01 c0                	add    %eax,%eax
 8048efb:	eb e8                	jmp    8048ee5 <fun7+0x32>
 8048efd:	b8 ff ff ff ff       	mov    $0xffffffff,%eax
 8048f02:	eb e1                	jmp    8048ee5 <fun7+0x32>

08048f04 <secret_phase>:
 8048f04:	53                   	push   %ebx
 8048f05:	83 ec 08             	sub    $0x8,%esp
 8048f08:	e8 43 02 00 00       	call   8049150 <read_line>
 8048f0d:	83 ec 04             	sub    $0x4,%esp
 8048f10:	6a 0a                	push   $0xa
 8048f12:	6a 00                	push   $0x0
 8048f14:	50                   	push   %eax
 8048f15:	e8 66 f9 ff ff       	call   8048880 <strtol@plt>
 8048f1a:	89 c3                	mov    %eax,%ebx
 8048f1c:	8d 40 ff             	lea    -0x1(%eax),%eax
 8048f1f:	83 c4 10             	add    $0x10,%esp
 8048f22:	3d e8 03 00 00       	cmp    $0x3e8,%eax
 8048f27:	77 2c                	ja     8048f55 <secret_phase+0x51>
 8048f29:	83 ec 08             	sub    $0x8,%esp
 8048f2c:	53                   	push   %ebx
 8048f2d:	68 88 c0 04 08       	push   $0x804c088
 8048f32:	e8 7c ff ff ff       	call   8048eb3 <fun7>
 8048f37:	83 c4 10             	add    $0x10,%esp
 8048f3a:	85 c0                	test   %eax,%eax
 8048f3c:	75 1e                	jne    8048f5c <secret_phase+0x58>
 8048f3e:	83 ec 0c             	sub    $0xc,%esp
 8048f41:	68 2c a0 04 08       	push   $0x804a02c
 8048f46:	e8 75 f8 ff ff       	call   80487c0 <puts@plt>
 8048f4b:	e8 ff 02 00 00       	call   804924f <phase_defused>
 8048f50:	83 c4 18             	add    $0x18,%esp
 8048f53:	5b                   	pop    %ebx
 8048f54:	c3                   	ret    
 8048f55:	e8 96 01 00 00       	call   80490f0 <explode_bomb>
 8048f5a:	eb cd                	jmp    8048f29 <secret_phase+0x25>
 8048f5c:	e8 8f 01 00 00       	call   80490f0 <explode_bomb>
 8048f61:	eb db                	jmp    8048f3e <secret_phase+0x3a>

08048f63 <sig_handler>:
 8048f63:	83 ec 18             	sub    $0x18,%esp
 8048f66:	68 8c a0 04 08       	push   $0x804a08c
 8048f6b:	e8 50 f8 ff ff       	call   80487c0 <puts@plt>
 8048f70:	c7 04 24 03 00 00 00 	movl   $0x3,(%esp)
 8048f77:	e8 f4 f7 ff ff       	call   8048770 <sleep@plt>
 8048f7c:	83 c4 08             	add    $0x8,%esp
 8048f7f:	68 4e a1 04 08       	push   $0x804a14e
 8048f84:	6a 01                	push   $0x1
 8048f86:	e8 b5 f8 ff ff       	call   8048840 <__printf_chk@plt>
 8048f8b:	83 c4 04             	add    $0x4,%esp
 8048f8e:	ff 35 c4 c3 04 08    	push   0x804c3c4
 8048f94:	e8 a7 f7 ff ff       	call   8048740 <fflush@plt>
 8048f99:	c7 04 24 01 00 00 00 	movl   $0x1,(%esp)
 8048fa0:	e8 cb f7 ff ff       	call   8048770 <sleep@plt>
 8048fa5:	c7 04 24 56 a1 04 08 	movl   $0x804a156,(%esp)
 8048fac:	e8 0f f8 ff ff       	call   80487c0 <puts@plt>
 8048fb1:	c7 04 24 10 00 00 00 	movl   $0x10,(%esp)
 8048fb8:	e8 23 f8 ff ff       	call   80487e0 <exit@plt>

08048fbd <invalid_phase>:
 8048fbd:	83 ec 10             	sub    $0x10,%esp
 8048fc0:	ff 74 24 14          	push   0x14(%esp)
 8048fc4:	68 5e a1 04 08       	push   $0x804a15e
 8048fc9:	6a 01                	push   $0x1
 8048fcb:	e8 70 f8 ff ff       	call   8048840 <__printf_chk@plt>
 8048fd0:	c7 04 24 08 00 00 00 	movl   $0x8,(%esp)
 8048fd7:	e8 04 f8 ff ff       	call   80487e0 <exit@plt>

08048fdc <string_length>:
 8048fdc:	8b 54 24 04          	mov    0x4(%esp),%edx
 8048fe0:	80 3a 00             	cmpb   $0x0,(%edx)
 8048fe3:	74 10                	je     8048ff5 <string_length+0x19>
 8048fe5:	b8 00 00 00 00       	mov    $0x0,%eax
 8048fea:	83 c0 01             	add    $0x1,%eax
 8048fed:	80 3c 02 00          	cmpb   $0x0,(%edx,%eax,1)
 8048ff1:	75 f7                	jne    8048fea <string_length+0xe>
 8048ff3:	f3 c3                	repz ret 
 8048ff5:	b8 00 00 00 00       	mov    $0x0,%eax
 8048ffa:	c3                   	ret    

08048ffb <strings_not_equal>:
 8048ffb:	57                   	push   %edi
 8048ffc:	56                   	push   %esi
 8048ffd:	53                   	push   %ebx
 8048ffe:	8b 5c 24 10          	mov    0x10(%esp),%ebx
 8049002:	8b 74 24 14          	mov    0x14(%esp),%esi
 8049006:	53                   	push   %ebx
 8049007:	e8 d0 ff ff ff       	call   8048fdc <string_length>
 804900c:	89 c7                	mov    %eax,%edi
 804900e:	89 34 24             	mov    %esi,(%esp)
 8049011:	e8 c6 ff ff ff       	call   8048fdc <string_length>
 8049016:	83 c4 04             	add    $0x4,%esp
 8049019:	ba 01 00 00 00       	mov    $0x1,%edx
 804901e:	39 c7                	cmp    %eax,%edi
 8049020:	74 06                	je     8049028 <strings_not_equal+0x2d>
 8049022:	89 d0                	mov    %edx,%eax
 8049024:	5b                   	pop    %ebx
 8049025:	5e                   	pop    %esi
 8049026:	5f                   	pop    %edi
 8049027:	c3                   	ret    
 8049028:	0f b6 03             	movzbl (%ebx),%eax
 804902b:	84 c0                	test   %al,%al
 804902d:	74 23                	je     8049052 <strings_not_equal+0x57>
 804902f:	3a 06                	cmp    (%esi),%al
 8049031:	75 26                	jne    8049059 <strings_not_equal+0x5e>
 8049033:	83 c3 01             	add    $0x1,%ebx
 8049036:	83 c6 01             	add    $0x1,%esi
 8049039:	0f b6 03             	movzbl (%ebx),%eax
 804903c:	84 c0                	test   %al,%al
 804903e:	74 0b                	je     804904b <strings_not_equal+0x50>
 8049040:	3a 06                	cmp    (%esi),%al
 8049042:	74 ef                	je     8049033 <strings_not_equal+0x38>
 8049044:	ba 01 00 00 00       	mov    $0x1,%edx
 8049049:	eb d7                	jmp    8049022 <strings_not_equal+0x27>
 804904b:	ba 00 00 00 00       	mov    $0x0,%edx
 8049050:	eb d0                	jmp    8049022 <strings_not_equal+0x27>
 8049052:	ba 00 00 00 00       	mov    $0x0,%edx
 8049057:	eb c9                	jmp    8049022 <strings_not_equal+0x27>
 8049059:	ba 01 00 00 00       	mov    $0x1,%edx
 804905e:	eb c2                	jmp    8049022 <strings_not_equal+0x27>

08049060 <initialize_bomb>:
 8049060:	83 ec 14             	sub    $0x14,%esp
 8049063:	68 63 8f 04 08       	push   $0x8048f63
 8049068:	6a 02                	push   $0x2
 804906a:	e8 f1 f6 ff ff       	call   8048760 <signal@plt>
 804906f:	83 c4 1c             	add    $0x1c,%esp
 8049072:	c3                   	ret    

08049073 <initialize_bomb_solve>:
 8049073:	f3 c3                	repz ret 

08049075 <blank_line>:
 8049075:	56                   	push   %esi
 8049076:	53                   	push   %ebx
 8049077:	83 ec 04             	sub    $0x4,%esp
 804907a:	8b 74 24 10          	mov    0x10(%esp),%esi
 804907e:	0f b6 1e             	movzbl (%esi),%ebx
 8049081:	84 db                	test   %bl,%bl
 8049083:	74 1b                	je     80490a0 <blank_line+0x2b>
 8049085:	e8 26 f8 ff ff       	call   80488b0 <__ctype_b_loc@plt>
 804908a:	83 c6 01             	add    $0x1,%esi
 804908d:	0f be db             	movsbl %bl,%ebx
 8049090:	8b 00                	mov    (%eax),%eax
 8049092:	f6 44 58 01 20       	testb  $0x20,0x1(%eax,%ebx,2)
 8049097:	75 e5                	jne    804907e <blank_line+0x9>
 8049099:	b8 00 00 00 00       	mov    $0x0,%eax
 804909e:	eb 05                	jmp    80490a5 <blank_line+0x30>
 80490a0:	b8 01 00 00 00       	mov    $0x1,%eax
 80490a5:	83 c4 04             	add    $0x4,%esp
 80490a8:	5b                   	pop    %ebx
 80490a9:	5e                   	pop    %esi
 80490aa:	c3                   	ret    

080490ab <skip>:
 80490ab:	53                   	push   %ebx
 80490ac:	83 ec 08             	sub    $0x8,%esp
 80490af:	83 ec 04             	sub    $0x4,%esp
 80490b2:	ff 35 d0 c3 04 08    	push   0x804c3d0
 80490b8:	6a 50                	push   $0x50
 80490ba:	a1 cc c3 04 08       	mov    0x804c3cc,%eax
 80490bf:	8d 04 80             	lea    (%eax,%eax,4),%eax
 80490c2:	c1 e0 04             	shl    $0x4,%eax
 80490c5:	05 e0 c3 04 08       	add    $0x804c3e0,%eax
 80490ca:	50                   	push   %eax
 80490cb:	e8 80 f6 ff ff       	call   8048750 <fgets@plt>
 80490d0:	89 c3                	mov    %eax,%ebx
 80490d2:	83 c4 10             	add    $0x10,%esp
 80490d5:	85 c0                	test   %eax,%eax
 80490d7:	74 10                	je     80490e9 <skip+0x3e>
 80490d9:	83 ec 0c             	sub    $0xc,%esp
 80490dc:	50                   	push   %eax
 80490dd:	e8 93 ff ff ff       	call   8049075 <blank_line>
 80490e2:	83 c4 10             	add    $0x10,%esp
 80490e5:	85 c0                	test   %eax,%eax
 80490e7:	75 c6                	jne    80490af <skip+0x4>
 80490e9:	89 d8                	mov    %ebx,%eax
 80490eb:	83 c4 08             	add    $0x8,%esp
 80490ee:	5b                   	pop    %ebx
 80490ef:	c3                   	ret    

080490f0 <explode_bomb>:
 80490f0:	83 ec 18             	sub    $0x18,%esp
 80490f3:	68 6f a1 04 08       	push   $0x804a16f
 80490f8:	e8 c3 f6 ff ff       	call   80487c0 <puts@plt>
 80490fd:	c7 04 24 78 a1 04 08 	movl   $0x804a178,(%esp)
 8049104:	e8 b7 f6 ff ff       	call   80487c0 <puts@plt>
 8049109:	c7 04 24 08 00 00 00 	movl   $0x8,(%esp)
 8049110:	e8 cb f6 ff ff       	call   80487e0 <exit@plt>

08049115 <read_six_numbers>:
 8049115:	83 ec 0c             	sub    $0xc,%esp
 8049118:	8b 44 24 14          	mov    0x14(%esp),%eax
 804911c:	8d 50 14             	lea    0x14(%eax),%edx
 804911f:	52                   	push   %edx
 8049120:	8d 50 10             	lea    0x10(%eax),%edx
 8049123:	52                   	push   %edx
 8049124:	8d 50 0c             	lea    0xc(%eax),%edx
 8049127:	52                   	push   %edx
 8049128:	8d 50 08             	lea    0x8(%eax),%edx
 804912b:	52                   	push   %edx
 804912c:	8d 50 04             	lea    0x4(%eax),%edx
 804912f:	52                   	push   %edx
 8049130:	50                   	push   %eax
 8049131:	68 8f a1 04 08       	push   $0x804a18f
 8049136:	ff 74 24 2c          	push   0x2c(%esp)
 804913a:	e8 d1 f6 ff ff       	call   8048810 <__isoc99_sscanf@plt>
 804913f:	83 c4 20             	add    $0x20,%esp
 8049142:	83 f8 05             	cmp    $0x5,%eax
 8049145:	7e 04                	jle    804914b <read_six_numbers+0x36>
 8049147:	83 c4 0c             	add    $0xc,%esp
 804914a:	c3                   	ret    
 804914b:	e8 a0 ff ff ff       	call   80490f0 <explode_bomb>

08049150 <read_line>:
 8049150:	57                   	push   %edi
 8049151:	56                   	push   %esi
 8049152:	53                   	push   %ebx
 8049153:	e8 53 ff ff ff       	call   80490ab <skip>
 8049158:	85 c0                	test   %eax,%eax
 804915a:	74 4b                	je     80491a7 <read_line+0x57>
 804915c:	8b 15 cc c3 04 08    	mov    0x804c3cc,%edx
 8049162:	8d 1c 92             	lea    (%edx,%edx,4),%ebx
 8049165:	c1 e3 04             	shl    $0x4,%ebx
 8049168:	81 c3 e0 c3 04 08    	add    $0x804c3e0,%ebx
 804916e:	b8 00 00 00 00       	mov    $0x0,%eax
 8049173:	b9 ff ff ff ff       	mov    $0xffffffff,%ecx
 8049178:	89 df                	mov    %ebx,%edi
 804917a:	f2 ae                	repnz scas %es:(%edi),%al
 804917c:	f7 d1                	not    %ecx
 804917e:	83 e9 01             	sub    $0x1,%ecx
 8049181:	83 f9 4e             	cmp    $0x4e,%ecx
 8049184:	0f 8f 8d 00 00 00    	jg     8049217 <read_line+0xc7>
 804918a:	8d 04 92             	lea    (%edx,%edx,4),%eax
 804918d:	c1 e0 04             	shl    $0x4,%eax
 8049190:	c6 84 01 df c3 04 08 	movb   $0x0,0x804c3df(%ecx,%eax,1)
 8049197:	00 
 8049198:	83 c2 01             	add    $0x1,%edx
 804919b:	89 15 cc c3 04 08    	mov    %edx,0x804c3cc
 80491a1:	89 d8                	mov    %ebx,%eax
 80491a3:	5b                   	pop    %ebx
 80491a4:	5e                   	pop    %esi
 80491a5:	5f                   	pop    %edi
 80491a6:	c3                   	ret    
 80491a7:	a1 c0 c3 04 08       	mov    0x804c3c0,%eax
 80491ac:	39 05 d0 c3 04 08    	cmp    %eax,0x804c3d0
 80491b2:	74 40                	je     80491f4 <read_line+0xa4>
 80491b4:	83 ec 0c             	sub    $0xc,%esp
 80491b7:	68 bf a1 04 08       	push   $0x804a1bf
 80491bc:	e8 ef f5 ff ff       	call   80487b0 <getenv@plt>
 80491c1:	83 c4 10             	add    $0x10,%esp
 80491c4:	85 c0                	test   %eax,%eax
 80491c6:	75 45                	jne    804920d <read_line+0xbd>
 80491c8:	a1 c0 c3 04 08       	mov    0x804c3c0,%eax
 80491cd:	a3 d0 c3 04 08       	mov    %eax,0x804c3d0
 80491d2:	e8 d4 fe ff ff       	call   80490ab <skip>
 80491d7:	85 c0                	test   %eax,%eax
 80491d9:	75 81                	jne    804915c <read_line+0xc>
 80491db:	83 ec 0c             	sub    $0xc,%esp
 80491de:	68 a1 a1 04 08       	push   $0x804a1a1
 80491e3:	e8 d8 f5 ff ff       	call   80487c0 <puts@plt>
 80491e8:	c7 04 24 00 00 00 00 	movl   $0x0,(%esp)
 80491ef:	e8 ec f5 ff ff       	call   80487e0 <exit@plt>
 80491f4:	83 ec 0c             	sub    $0xc,%esp
 80491f7:	68 a1 a1 04 08       	push   $0x804a1a1
 80491fc:	e8 bf f5 ff ff       	call   80487c0 <puts@plt>
 8049201:	c7 04 24 08 00 00 00 	movl   $0x8,(%esp)
 8049208:	e8 d3 f5 ff ff       	call   80487e0 <exit@plt>
 804920d:	83 ec 0c             	sub    $0xc,%esp
 8049210:	6a 00                	push   $0x0
 8049212:	e8 c9 f5 ff ff       	call   80487e0 <exit@plt>
 8049217:	83 ec 0c             	sub    $0xc,%esp
 804921a:	68 ca a1 04 08       	push   $0x804a1ca
 804921f:	e8 9c f5 ff ff       	call   80487c0 <puts@plt>
 8049224:	a1 cc c3 04 08       	mov    0x804c3cc,%eax
 8049229:	8d 50 01             	lea    0x1(%eax),%edx
 804922c:	89 15 cc c3 04 08    	mov    %edx,0x804c3cc
 8049232:	6b c0 50             	imul   $0x50,%eax,%eax
 8049235:	05 e0 c3 04 08       	add    $0x804c3e0,%eax
 804923a:	ba e5 a1 04 08       	mov    $0x804a1e5,%edx
 804923f:	b9 04 00 00 00       	mov    $0x4,%ecx
 8049244:	89 c7                	mov    %eax,%edi
 8049246:	89 d6                	mov    %edx,%esi
 8049248:	f3 a5                	rep movsl %ds:(%esi),%es:(%edi)
 804924a:	e8 a1 fe ff ff       	call   80490f0 <explode_bomb>

0804924f <phase_defused>:
 804924f:	83 ec 6c             	sub    $0x6c,%esp
 8049252:	65 a1 14 00 00 00    	mov    %gs:0x14,%eax
 8049258:	89 44 24 5c          	mov    %eax,0x5c(%esp)
 804925c:	31 c0                	xor    %eax,%eax
 804925e:	83 3d cc c3 04 08 06 	cmpl   $0x6,0x804c3cc
 8049265:	74 11                	je     8049278 <phase_defused+0x29>
 8049267:	8b 44 24 5c          	mov    0x5c(%esp),%eax
 804926b:	65 33 05 14 00 00 00 	xor    %gs:0x14,%eax
 8049272:	75 7b                	jne    80492ef <phase_defused+0xa0>
 8049274:	83 c4 6c             	add    $0x6c,%esp
 8049277:	c3                   	ret    
 8049278:	83 ec 0c             	sub    $0xc,%esp
 804927b:	8d 44 24 18          	lea    0x18(%esp),%eax
 804927f:	50                   	push   %eax
 8049280:	8d 44 24 18          	lea    0x18(%esp),%eax
 8049284:	50                   	push   %eax
 8049285:	8d 44 24 18          	lea    0x18(%esp),%eax
 8049289:	50                   	push   %eax
 804928a:	68 f5 a1 04 08       	push   $0x804a1f5
 804928f:	68 d0 c4 04 08       	push   $0x804c4d0
 8049294:	e8 77 f5 ff ff       	call   8048810 <__isoc99_sscanf@plt>
 8049299:	83 c4 20             	add    $0x20,%esp
 804929c:	83 f8 03             	cmp    $0x3,%eax
 804929f:	74 12                	je     80492b3 <phase_defused+0x64>
 80492a1:	83 ec 0c             	sub    $0xc,%esp
 80492a4:	68 24 a1 04 08       	push   $0x804a124
 80492a9:	e8 12 f5 ff ff       	call   80487c0 <puts@plt>
 80492ae:	83 c4 10             	add    $0x10,%esp
 80492b1:	eb b4                	jmp    8049267 <phase_defused+0x18>
 80492b3:	83 ec 08             	sub    $0x8,%esp
 80492b6:	68 fe a1 04 08       	push   $0x804a1fe
 80492bb:	8d 44 24 18          	lea    0x18(%esp),%eax
 80492bf:	50                   	push   %eax
 80492c0:	e8 36 fd ff ff       	call   8048ffb <strings_not_equal>
 80492c5:	83 c4 10             	add    $0x10,%esp
 80492c8:	85 c0                	test   %eax,%eax
 80492ca:	75 d5                	jne    80492a1 <phase_defused+0x52>
 80492cc:	83 ec 0c             	sub    $0xc,%esp
 80492cf:	68 c4 a0 04 08       	push   $0x804a0c4
 80492d4:	e8 e7 f4 ff ff       	call   80487c0 <puts@plt>
 80492d9:	c7 04 24 ec a0 04 08 	movl   $0x804a0ec,(%esp)
 80492e0:	e8 db f4 ff ff       	call   80487c0 <puts@plt>
 80492e5:	e8 1a fc ff ff       	call   8048f04 <secret_phase>
 80492ea:	83 c4 10             	add    $0x10,%esp
 80492ed:	eb b2                	jmp    80492a1 <phase_defused+0x52>
 80492ef:	e8 9c f4 ff ff       	call   8048790 <__stack_chk_fail@plt>

080492f4 <sigalrm_handler>:
 80492f4:	83 ec 0c             	sub    $0xc,%esp
 80492f7:	6a 00                	push   $0x0
 80492f9:	68 54 a2 04 08       	push   $0x804a254
 80492fe:	6a 01                	push   $0x1
 8049300:	ff 35 a0 c3 04 08    	push   0x804c3a0
 8049306:	e8 55 f5 ff ff       	call   8048860 <__fprintf_chk@plt>
 804930b:	c7 04 24 01 00 00 00 	movl   $0x1,(%esp)
 8049312:	e8 c9 f4 ff ff       	call   80487e0 <exit@plt>

08049317 <rio_readlineb>:
 8049317:	55                   	push   %ebp
 8049318:	57                   	push   %edi
 8049319:	56                   	push   %esi
 804931a:	53                   	push   %ebx
 804931b:	83 ec 1c             	sub    $0x1c,%esp
 804931e:	83 f9 01             	cmp    $0x1,%ecx
 8049321:	76 79                	jbe    804939c <rio_readlineb+0x85>
 8049323:	89 d7                	mov    %edx,%edi
 8049325:	89 c3                	mov    %eax,%ebx
 8049327:	89 4c 24 0c          	mov    %ecx,0xc(%esp)
 804932b:	bd 01 00 00 00       	mov    $0x1,%ebp
 8049330:	8d 70 0c             	lea    0xc(%eax),%esi
 8049333:	eb 0a                	jmp    804933f <rio_readlineb+0x28>
 8049335:	e8 f6 f4 ff ff       	call   8048830 <__errno_location@plt>
 804933a:	83 38 04             	cmpl   $0x4,(%eax)
 804933d:	75 66                	jne    80493a5 <rio_readlineb+0x8e>
 804933f:	8b 43 04             	mov    0x4(%ebx),%eax
 8049342:	85 c0                	test   %eax,%eax
 8049344:	7f 23                	jg     8049369 <rio_readlineb+0x52>
 8049346:	83 ec 04             	sub    $0x4,%esp
 8049349:	68 00 20 00 00       	push   $0x2000
 804934e:	56                   	push   %esi
 804934f:	ff 33                	push   (%ebx)
 8049351:	e8 da f3 ff ff       	call   8048730 <read@plt>
 8049356:	89 43 04             	mov    %eax,0x4(%ebx)
 8049359:	83 c4 10             	add    $0x10,%esp
 804935c:	85 c0                	test   %eax,%eax
 804935e:	78 d5                	js     8049335 <rio_readlineb+0x1e>
 8049360:	85 c0                	test   %eax,%eax
 8049362:	74 48                	je     80493ac <rio_readlineb+0x95>
 8049364:	89 73 08             	mov    %esi,0x8(%ebx)
 8049367:	eb d6                	jmp    804933f <rio_readlineb+0x28>
 8049369:	8b 4b 08             	mov    0x8(%ebx),%ecx
 804936c:	0f b6 11             	movzbl (%ecx),%edx
 804936f:	83 c1 01             	add    $0x1,%ecx
 8049372:	89 4b 08             	mov    %ecx,0x8(%ebx)
 8049375:	83 e8 01             	sub    $0x1,%eax
 8049378:	89 43 04             	mov    %eax,0x4(%ebx)
 804937b:	83 c7 01             	add    $0x1,%edi
 804937e:	88 57 ff             	mov    %dl,-0x1(%edi)
 8049381:	80 fa 0a             	cmp    $0xa,%dl
 8049384:	74 09                	je     804938f <rio_readlineb+0x78>
 8049386:	83 c5 01             	add    $0x1,%ebp
 8049389:	3b 6c 24 0c          	cmp    0xc(%esp),%ebp
 804938d:	75 b0                	jne    804933f <rio_readlineb+0x28>
 804938f:	c6 07 00             	movb   $0x0,(%edi)
 8049392:	89 e8                	mov    %ebp,%eax
 8049394:	83 c4 1c             	add    $0x1c,%esp
 8049397:	5b                   	pop    %ebx
 8049398:	5e                   	pop    %esi
 8049399:	5f                   	pop    %edi
 804939a:	5d                   	pop    %ebp
 804939b:	c3                   	ret    
 804939c:	89 d7                	mov    %edx,%edi
 804939e:	bd 01 00 00 00       	mov    $0x1,%ebp
 80493a3:	eb ea                	jmp    804938f <rio_readlineb+0x78>
 80493a5:	b8 ff ff ff ff       	mov    $0xffffffff,%eax
 80493aa:	eb 05                	jmp    80493b1 <rio_readlineb+0x9a>
 80493ac:	b8 00 00 00 00       	mov    $0x0,%eax
 80493b1:	85 c0                	test   %eax,%eax
 80493b3:	75 0c                	jne    80493c1 <rio_readlineb+0xaa>
 80493b5:	83 fd 01             	cmp    $0x1,%ebp
 80493b8:	75 d5                	jne    804938f <rio_readlineb+0x78>
 80493ba:	bd 00 00 00 00       	mov    $0x0,%ebp
 80493bf:	eb d1                	jmp    8049392 <rio_readlineb+0x7b>
 80493c1:	bd ff ff ff ff       	mov    $0xffffffff,%ebp
 80493c6:	eb ca                	jmp    8049392 <rio_readlineb+0x7b>

080493c8 <submitr>:
 80493c8:	55                   	push   %ebp
 80493c9:	57                   	push   %edi
 80493ca:	56                   	push   %esi
 80493cb:	53                   	push   %ebx
 80493cc:	81 ec 60 a0 00 00    	sub    $0xa060,%esp
 80493d2:	8b 9c 24 74 a0 00 00 	mov    0xa074(%esp),%ebx
 80493d9:	8b 84 24 7c a0 00 00 	mov    0xa07c(%esp),%eax
 80493e0:	89 44 24 0c          	mov    %eax,0xc(%esp)
 80493e4:	8b 84 24 80 a0 00 00 	mov    0xa080(%esp),%eax
 80493eb:	89 44 24 10          	mov    %eax,0x10(%esp)
 80493ef:	8b 84 24 84 a0 00 00 	mov    0xa084(%esp),%eax
 80493f6:	89 44 24 14          	mov    %eax,0x14(%esp)
 80493fa:	8b b4 24 88 a0 00 00 	mov    0xa088(%esp),%esi
 8049401:	8b 84 24 8c a0 00 00 	mov    0xa08c(%esp),%eax
 8049408:	89 44 24 18          	mov    %eax,0x18(%esp)
 804940c:	65 a1 14 00 00 00    	mov    %gs:0x14,%eax
 8049412:	89 84 24 50 a0 00 00 	mov    %eax,0xa050(%esp)
 8049419:	31 c0                	xor    %eax,%eax
 804941b:	c7 44 24 30 00 00 00 	movl   $0x0,0x30(%esp)
 8049422:	00 
 8049423:	6a 00                	push   $0x0
 8049425:	6a 01                	push   $0x1
 8049427:	6a 02                	push   $0x2
 8049429:	e8 22 f4 ff ff       	call   8048850 <socket@plt>
 804942e:	83 c4 10             	add    $0x10,%esp
 8049431:	85 c0                	test   %eax,%eax
 8049433:	0f 88 04 01 00 00    	js     804953d <submitr+0x175>
 8049439:	89 c5                	mov    %eax,%ebp
 804943b:	83 ec 0c             	sub    $0xc,%esp
 804943e:	53                   	push   %ebx
 804943f:	e8 2c f4 ff ff       	call   8048870 <gethostbyname@plt>
 8049444:	83 c4 10             	add    $0x10,%esp
 8049447:	85 c0                	test   %eax,%eax
 8049449:	0f 84 40 01 00 00    	je     804958f <submitr+0x1c7>
 804944f:	8d 5c 24 30          	lea    0x30(%esp),%ebx
 8049453:	c7 44 24 30 00 00 00 	movl   $0x0,0x30(%esp)
 804945a:	00 
 804945b:	c7 44 24 34 00 00 00 	movl   $0x0,0x34(%esp)
 8049462:	00 
 8049463:	c7 44 24 38 00 00 00 	movl   $0x0,0x38(%esp)
 804946a:	00 
 804946b:	c7 44 24 3c 00 00 00 	movl   $0x0,0x3c(%esp)
 8049472:	00 
 8049473:	66 c7 44 24 30 02 00 	movw   $0x2,0x30(%esp)
 804947a:	6a 0c                	push   $0xc
 804947c:	ff 70 0c             	push   0xc(%eax)
 804947f:	8b 40 10             	mov    0x10(%eax),%eax
 8049482:	ff 30                	push   (%eax)
 8049484:	8d 44 24 40          	lea    0x40(%esp),%eax
 8049488:	50                   	push   %eax
 8049489:	e8 42 f3 ff ff       	call   80487d0 <__memmove_chk@plt>
 804948e:	0f b7 84 24 84 a0 00 	movzwl 0xa084(%esp),%eax
 8049495:	00 
 8049496:	66 c1 c8 08          	ror    $0x8,%ax
 804949a:	66 89 44 24 42       	mov    %ax,0x42(%esp)
 804949f:	83 c4 0c             	add    $0xc,%esp
 80494a2:	6a 10                	push   $0x10
 80494a4:	53                   	push   %ebx
 80494a5:	55                   	push   %ebp
 80494a6:	e8 e5 f3 ff ff       	call   8048890 <connect@plt>
 80494ab:	83 c4 10             	add    $0x10,%esp
 80494ae:	85 c0                	test   %eax,%eax
 80494b0:	0f 88 49 01 00 00    	js     80495ff <submitr+0x237>
 80494b6:	ba ff ff ff ff       	mov    $0xffffffff,%edx
 80494bb:	b8 00 00 00 00       	mov    $0x0,%eax
 80494c0:	89 d1                	mov    %edx,%ecx
 80494c2:	89 f7                	mov    %esi,%edi
 80494c4:	f2 ae                	repnz scas %es:(%edi),%al
 80494c6:	89 cb                	mov    %ecx,%ebx
 80494c8:	f7 d3                	not    %ebx
 80494ca:	89 d1                	mov    %edx,%ecx
 80494cc:	8b 7c 24 08          	mov    0x8(%esp),%edi
 80494d0:	f2 ae                	repnz scas %es:(%edi),%al
 80494d2:	89 4c 24 18          	mov    %ecx,0x18(%esp)
 80494d6:	89 d1                	mov    %edx,%ecx
 80494d8:	8b 7c 24 0c          	mov    0xc(%esp),%edi
 80494dc:	f2 ae                	repnz scas %es:(%edi),%al
 80494de:	89 cf                	mov    %ecx,%edi
 80494e0:	f7 d7                	not    %edi
 80494e2:	89 7c 24 1c          	mov    %edi,0x1c(%esp)
 80494e6:	89 d1                	mov    %edx,%ecx
 80494e8:	8b 7c 24 10          	mov    0x10(%esp),%edi
 80494ec:	f2 ae                	repnz scas %es:(%edi),%al
 80494ee:	8b 54 24 1c          	mov    0x1c(%esp),%edx
 80494f2:	2b 54 24 18          	sub    0x18(%esp),%edx
 80494f6:	29 ca                	sub    %ecx,%edx
 80494f8:	8d 44 5b fd          	lea    -0x3(%ebx,%ebx,2),%eax
 80494fc:	8d 44 02 7b          	lea    0x7b(%edx,%eax,1),%eax
 8049500:	3d 00 20 00 00       	cmp    $0x2000,%eax
 8049505:	0f 87 56 01 00 00    	ja     8049661 <submitr+0x299>
 804950b:	8d 94 24 4c 40 00 00 	lea    0x404c(%esp),%edx
 8049512:	b9 00 08 00 00       	mov    $0x800,%ecx
 8049517:	b8 00 00 00 00       	mov    $0x0,%eax
 804951c:	89 d7                	mov    %edx,%edi
 804951e:	f3 ab                	rep stos %eax,%es:(%edi)
 8049520:	b9 ff ff ff ff       	mov    $0xffffffff,%ecx
 8049525:	89 f7                	mov    %esi,%edi
 8049527:	f2 ae                	repnz scas %es:(%edi),%al
 8049529:	f7 d1                	not    %ecx
 804952b:	89 cb                	mov    %ecx,%ebx
 804952d:	83 eb 01             	sub    $0x1,%ebx
 8049530:	0f 84 07 06 00 00    	je     8049b3d <submitr+0x775>
 8049536:	89 d7                	mov    %edx,%edi
 8049538:	e9 b0 01 00 00       	jmp    80496ed <submitr+0x325>
 804953d:	8b 44 24 14          	mov    0x14(%esp),%eax
 8049541:	c7 00 45 72 72 6f    	movl   $0x6f727245,(%eax)
 8049547:	c7 40 04 72 3a 20 43 	movl   $0x43203a72,0x4(%eax)
 804954e:	c7 40 08 6c 69 65 6e 	movl   $0x6e65696c,0x8(%eax)
 8049555:	c7 40 0c 74 20 75 6e 	movl   $0x6e752074,0xc(%eax)
 804955c:	c7 40 10 61 62 6c 65 	movl   $0x656c6261,0x10(%eax)
 8049563:	c7 40 14 20 74 6f 20 	movl   $0x206f7420,0x14(%eax)
 804956a:	c7 40 18 63 72 65 61 	movl   $0x61657263,0x18(%eax)
 8049571:	c7 40 1c 74 65 20 73 	movl   $0x73206574,0x1c(%eax)
 8049578:	c7 40 20 6f 63 6b 65 	movl   $0x656b636f,0x20(%eax)
 804957f:	66 c7 40 24 74 00    	movw   $0x74,0x24(%eax)
 8049585:	b8 ff ff ff ff       	mov    $0xffffffff,%eax
 804958a:	e9 d0 04 00 00       	jmp    8049a5f <submitr+0x697>
 804958f:	8b 44 24 14          	mov    0x14(%esp),%eax
 8049593:	c7 00 45 72 72 6f    	movl   $0x6f727245,(%eax)
 8049599:	c7 40 04 72 3a 20 44 	movl   $0x44203a72,0x4(%eax)
 80495a0:	c7 40 08 4e 53 20 69 	movl   $0x6920534e,0x8(%eax)
 80495a7:	c7 40 0c 73 20 75 6e 	movl   $0x6e752073,0xc(%eax)
 80495ae:	c7 40 10 61 62 6c 65 	movl   $0x656c6261,0x10(%eax)
 80495b5:	c7 40 14 20 74 6f 20 	movl   $0x206f7420,0x14(%eax)
 80495bc:	c7 40 18 72 65 73 6f 	movl   $0x6f736572,0x18(%eax)
 80495c3:	c7 40 1c 6c 76 65 20 	movl   $0x2065766c,0x1c(%eax)
 80495ca:	c7 40 20 73 65 72 76 	movl   $0x76726573,0x20(%eax)
 80495d1:	c7 40 24 65 72 20 61 	movl   $0x61207265,0x24(%eax)
 80495d8:	c7 40 28 64 64 72 65 	movl   $0x65726464,0x28(%eax)
 80495df:	66 c7 40 2c 73 73    	movw   $0x7373,0x2c(%eax)
 80495e5:	c6 40 2e 00          	movb   $0x0,0x2e(%eax)
 80495e9:	83 ec 0c             	sub    $0xc,%esp
 80495ec:	55                   	push   %ebp
 80495ed:	e8 ae f2 ff ff       	call   80488a0 <close@plt>
 80495f2:	83 c4 10             	add    $0x10,%esp
 80495f5:	b8 ff ff ff ff       	mov    $0xffffffff,%eax
 80495fa:	e9 60 04 00 00       	jmp    8049a5f <submitr+0x697>
 80495ff:	8b 44 24 14          	mov    0x14(%esp),%eax
 8049603:	c7 00 45 72 72 6f    	movl   $0x6f727245,(%eax)
 8049609:	c7 40 04 72 3a 20 55 	movl   $0x55203a72,0x4(%eax)
 8049610:	c7 40 08 6e 61 62 6c 	movl   $0x6c62616e,0x8(%eax)
 8049617:	c7 40 0c 65 20 74 6f 	movl   $0x6f742065,0xc(%eax)
 804961e:	c7 40 10 20 63 6f 6e 	movl   $0x6e6f6320,0x10(%eax)
 8049625:	c7 40 14 6e 65 63 74 	movl   $0x7463656e,0x14(%eax)
 804962c:	c7 40 18 20 74 6f 20 	movl   $0x206f7420,0x18(%eax)
 8049633:	c7 40 1c 74 68 65 20 	movl   $0x20656874,0x1c(%eax)
 804963a:	c7 40 20 73 65 72 76 	movl   $0x76726573,0x20(%eax)
 8049641:	66 c7 40 24 65 72    	movw   $0x7265,0x24(%eax)
 8049647:	c6 40 26 00          	movb   $0x0,0x26(%eax)
 804964b:	83 ec 0c             	sub    $0xc,%esp
 804964e:	55                   	push   %ebp
 804964f:	e8 4c f2 ff ff       	call   80488a0 <close@plt>
 8049654:	83 c4 10             	add    $0x10,%esp
 8049657:	b8 ff ff ff ff       	mov    $0xffffffff,%eax
 804965c:	e9 fe 03 00 00       	jmp    8049a5f <submitr+0x697>
 8049661:	8b 44 24 14          	mov    0x14(%esp),%eax
 8049665:	c7 00 45 72 72 6f    	movl   $0x6f727245,(%eax)
 804966b:	c7 40 04 72 3a 20 52 	movl   $0x52203a72,0x4(%eax)
 8049672:	c7 40 08 65 73 75 6c 	movl   $0x6c757365,0x8(%eax)
 8049679:	c7 40 0c 74 20 73 74 	movl   $0x74732074,0xc(%eax)
 8049680:	c7 40 10 72 69 6e 67 	movl   $0x676e6972,0x10(%eax)
 8049687:	c7 40 14 20 74 6f 6f 	movl   $0x6f6f7420,0x14(%eax)
 804968e:	c7 40 18 20 6c 61 72 	movl   $0x72616c20,0x18(%eax)
 8049695:	c7 40 1c 67 65 2e 20 	movl   $0x202e6567,0x1c(%eax)
 804969c:	c7 40 20 49 6e 63 72 	movl   $0x72636e49,0x20(%eax)
 80496a3:	c7 40 24 65 61 73 65 	movl   $0x65736165,0x24(%eax)
 80496aa:	c7 40 28 20 53 55 42 	movl   $0x42555320,0x28(%eax)
 80496b1:	c7 40 2c 4d 49 54 52 	movl   $0x5254494d,0x2c(%eax)
 80496b8:	c7 40 30 5f 4d 41 58 	movl   $0x58414d5f,0x30(%eax)
 80496bf:	c7 40 34 42 55 46 00 	movl   $0x465542,0x34(%eax)
 80496c6:	83 ec 0c             	sub    $0xc,%esp
 80496c9:	55                   	push   %ebp
 80496ca:	e8 d1 f1 ff ff       	call   80488a0 <close@plt>
 80496cf:	83 c4 10             	add    $0x10,%esp
 80496d2:	b8 ff ff ff ff       	mov    $0xffffffff,%eax
 80496d7:	e9 83 03 00 00       	jmp    8049a5f <submitr+0x697>
 80496dc:	88 17                	mov    %dl,(%edi)
 80496de:	8d 7f 01             	lea    0x1(%edi),%edi
 80496e1:	83 c6 01             	add    $0x1,%esi
 80496e4:	83 eb 01             	sub    $0x1,%ebx
 80496e7:	0f 84 50 04 00 00    	je     8049b3d <submitr+0x775>
 80496ed:	0f b6 16             	movzbl (%esi),%edx
 80496f0:	8d 4a d6             	lea    -0x2a(%edx),%ecx
 80496f3:	b8 01 00 00 00       	mov    $0x1,%eax
 80496f8:	80 f9 0f             	cmp    $0xf,%cl
 80496fb:	77 0d                	ja     804970a <submitr+0x342>
 80496fd:	b8 d9 ff 00 00       	mov    $0xffd9,%eax
 8049702:	d3 e8                	shr    %cl,%eax
 8049704:	83 f0 01             	xor    $0x1,%eax
 8049707:	83 e0 01             	and    $0x1,%eax
 804970a:	80 fa 5f             	cmp    $0x5f,%dl
 804970d:	74 cd                	je     80496dc <submitr+0x314>
 804970f:	84 c0                	test   %al,%al
 8049711:	74 c9                	je     80496dc <submitr+0x314>
 8049713:	89 d0                	mov    %edx,%eax
 8049715:	83 e0 df             	and    $0xffffffdf,%eax
 8049718:	83 e8 41             	sub    $0x41,%eax
 804971b:	3c 19                	cmp    $0x19,%al
 804971d:	76 bd                	jbe    80496dc <submitr+0x314>
 804971f:	80 fa 20             	cmp    $0x20,%dl
 8049722:	74 58                	je     804977c <submitr+0x3b4>
 8049724:	8d 42 e0             	lea    -0x20(%edx),%eax
 8049727:	3c 5f                	cmp    $0x5f,%al
 8049729:	76 09                	jbe    8049734 <submitr+0x36c>
 804972b:	80 fa 09             	cmp    $0x9,%dl
 804972e:	0f 85 c5 03 00 00    	jne    8049af9 <submitr+0x731>
 8049734:	83 ec 0c             	sub    $0xc,%esp
 8049737:	0f b6 d2             	movzbl %dl,%edx
 804973a:	52                   	push   %edx
 804973b:	68 60 a3 04 08       	push   $0x804a360
 8049740:	6a 08                	push   $0x8
 8049742:	6a 01                	push   $0x1
 8049744:	8d 84 24 68 80 00 00 	lea    0x8068(%esp),%eax
 804974b:	50                   	push   %eax
 804974c:	e8 6f f1 ff ff       	call   80488c0 <__sprintf_chk@plt>
 8049751:	0f b6 84 24 6c 80 00 	movzbl 0x806c(%esp),%eax
 8049758:	00 
 8049759:	88 07                	mov    %al,(%edi)
 804975b:	0f b6 84 24 6d 80 00 	movzbl 0x806d(%esp),%eax
 8049762:	00 
 8049763:	88 47 01             	mov    %al,0x1(%edi)
 8049766:	0f b6 84 24 6e 80 00 	movzbl 0x806e(%esp),%eax
 804976d:	00 
 804976e:	88 47 02             	mov    %al,0x2(%edi)
 8049771:	83 c4 20             	add    $0x20,%esp
 8049774:	8d 7f 03             	lea    0x3(%edi),%edi
 8049777:	e9 65 ff ff ff       	jmp    80496e1 <submitr+0x319>
 804977c:	c6 07 2b             	movb   $0x2b,(%edi)
 804977f:	8d 7f 01             	lea    0x1(%edi),%edi
 8049782:	e9 5a ff ff ff       	jmp    80496e1 <submitr+0x319>
 8049787:	01 c6                	add    %eax,%esi
 8049789:	29 c3                	sub    %eax,%ebx
 804978b:	74 24                	je     80497b1 <submitr+0x3e9>
 804978d:	83 ec 04             	sub    $0x4,%esp
 8049790:	53                   	push   %ebx
 8049791:	56                   	push   %esi
 8049792:	55                   	push   %ebp
 8049793:	e8 68 f0 ff ff       	call   8048800 <write@plt>
 8049798:	83 c4 10             	add    $0x10,%esp
 804979b:	85 c0                	test   %eax,%eax
 804979d:	7f e8                	jg     8049787 <submitr+0x3bf>
 804979f:	e8 8c f0 ff ff       	call   8048830 <__errno_location@plt>
 80497a4:	83 38 04             	cmpl   $0x4,(%eax)
 80497a7:	0f 85 b0 00 00 00    	jne    804985d <submitr+0x495>
 80497ad:	89 f8                	mov    %edi,%eax
 80497af:	eb d6                	jmp    8049787 <submitr+0x3bf>
 80497b1:	83 7c 24 08 00       	cmpl   $0x0,0x8(%esp)
 80497b6:	0f 88 a1 00 00 00    	js     804985d <submitr+0x495>
 80497bc:	89 6c 24 40          	mov    %ebp,0x40(%esp)
 80497c0:	c7 44 24 44 00 00 00 	movl   $0x0,0x44(%esp)
 80497c7:	00 
 80497c8:	8d 44 24 4c          	lea    0x4c(%esp),%eax
 80497cc:	89 44 24 48          	mov    %eax,0x48(%esp)
 80497d0:	b9 00 20 00 00       	mov    $0x2000,%ecx
 80497d5:	8d 94 24 4c 20 00 00 	lea    0x204c(%esp),%edx
 80497dc:	8d 44 24 40          	lea    0x40(%esp),%eax
 80497e0:	e8 32 fb ff ff       	call   8049317 <rio_readlineb>
 80497e5:	85 c0                	test   %eax,%eax
 80497e7:	0f 8e d6 00 00 00    	jle    80498c3 <submitr+0x4fb>
 80497ed:	83 ec 0c             	sub    $0xc,%esp
 80497f0:	8d 84 24 58 80 00 00 	lea    0x8058(%esp),%eax
 80497f7:	50                   	push   %eax
 80497f8:	8d 44 24 3c          	lea    0x3c(%esp),%eax
 80497fc:	50                   	push   %eax
 80497fd:	8d 84 24 60 60 00 00 	lea    0x6060(%esp),%eax
 8049804:	50                   	push   %eax
 8049805:	68 67 a3 04 08       	push   $0x804a367
 804980a:	8d 84 24 68 20 00 00 	lea    0x2068(%esp),%eax
 8049811:	50                   	push   %eax
 8049812:	e8 f9 ef ff ff       	call   8048810 <__isoc99_sscanf@plt>
 8049817:	8b 44 24 4c          	mov    0x4c(%esp),%eax
 804981b:	83 c4 20             	add    $0x20,%esp
 804981e:	3d c8 00 00 00       	cmp    $0xc8,%eax
 8049823:	0f 84 a6 01 00 00    	je     80499cf <submitr+0x607>
 8049829:	83 ec 08             	sub    $0x8,%esp
 804982c:	8d 94 24 54 80 00 00 	lea    0x8054(%esp),%edx
 8049833:	52                   	push   %edx
 8049834:	50                   	push   %eax
 8049835:	68 78 a2 04 08       	push   $0x804a278
 804983a:	6a ff                	push   $0xffffffff
 804983c:	6a 01                	push   $0x1
 804983e:	ff 74 24 30          	push   0x30(%esp)
 8049842:	e8 79 f0 ff ff       	call   80488c0 <__sprintf_chk@plt>
 8049847:	83 c4 14             	add    $0x14,%esp
 804984a:	55                   	push   %ebp
 804984b:	e8 50 f0 ff ff       	call   80488a0 <close@plt>
 8049850:	83 c4 10             	add    $0x10,%esp
 8049853:	b8 ff ff ff ff       	mov    $0xffffffff,%eax
 8049858:	e9 02 02 00 00       	jmp    8049a5f <submitr+0x697>
 804985d:	8b 44 24 14          	mov    0x14(%esp),%eax
 8049861:	c7 00 45 72 72 6f    	movl   $0x6f727245,(%eax)
 8049867:	c7 40 04 72 3a 20 43 	movl   $0x43203a72,0x4(%eax)
 804986e:	c7 40 08 6c 69 65 6e 	movl   $0x6e65696c,0x8(%eax)
 8049875:	c7 40 0c 74 20 75 6e 	movl   $0x6e752074,0xc(%eax)
 804987c:	c7 40 10 61 62 6c 65 	movl   $0x656c6261,0x10(%eax)
 8049883:	c7 40 14 20 74 6f 20 	movl   $0x206f7420,0x14(%eax)
 804988a:	c7 40 18 77 72 69 74 	movl   $0x74697277,0x18(%eax)
 8049891:	c7 40 1c 65 20 74 6f 	movl   $0x6f742065,0x1c(%eax)
 8049898:	c7 40 20 20 74 68 65 	movl   $0x65687420,0x20(%eax)
 804989f:	c7 40 24 20 73 65 72 	movl   $0x72657320,0x24(%eax)
 80498a6:	c7 40 28 76 65 72 00 	movl   $0x726576,0x28(%eax)
 80498ad:	83 ec 0c             	sub    $0xc,%esp
 80498b0:	55                   	push   %ebp
 80498b1:	e8 ea ef ff ff       	call   80488a0 <close@plt>
 80498b6:	83 c4 10             	add    $0x10,%esp
 80498b9:	b8 ff ff ff ff       	mov    $0xffffffff,%eax
 80498be:	e9 9c 01 00 00       	jmp    8049a5f <submitr+0x697>
 80498c3:	8b 44 24 14          	mov    0x14(%esp),%eax
 80498c7:	c7 00 45 72 72 6f    	movl   $0x6f727245,(%eax)
 80498cd:	c7 40 04 72 3a 20 43 	movl   $0x43203a72,0x4(%eax)
 80498d4:	c7 40 08 6c 69 65 6e 	movl   $0x6e65696c,0x8(%eax)
 80498db:	c7 40 0c 74 20 75 6e 	movl   $0x6e752074,0xc(%eax)
 80498e2:	c7 40 10 61 62 6c 65 	movl   $0x656c6261,0x10(%eax)
 80498e9:	c7 40 14 20 74 6f 20 	movl   $0x206f7420,0x14(%eax)
 80498f0:	c7 40 18 72 65 61 64 	movl   $0x64616572,0x18(%eax)
 80498f7:	c7 40 1c 20 66 69 72 	movl   $0x72696620,0x1c(%eax)
 80498fe:	c7 40 20 73 74 20 68 	movl   $0x68207473,0x20(%eax)
 8049905:	c7 40 24 65 61 64 65 	movl   $0x65646165,0x24(%eax)
 804990c:	c7 40 28 72 20 66 72 	movl   $0x72662072,0x28(%eax)
 8049913:	c7 40 2c 6f 6d 20 73 	movl   $0x73206d6f,0x2c(%eax)
 804991a:	c7 40 30 65 72 76 65 	movl   $0x65767265,0x30(%eax)
 8049921:	66 c7 40 34 72 00    	movw   $0x72,0x34(%eax)
 8049927:	83 ec 0c             	sub    $0xc,%esp
 804992a:	55                   	push   %ebp
 804992b:	e8 70 ef ff ff       	call   80488a0 <close@plt>
 8049930:	83 c4 10             	add    $0x10,%esp
 8049933:	b8 ff ff ff ff       	mov    $0xffffffff,%eax
 8049938:	e9 22 01 00 00       	jmp    8049a5f <submitr+0x697>
 804993d:	8b 44 24 14          	mov    0x14(%esp),%eax
 8049941:	c7 00 45 72 72 6f    	movl   $0x6f727245,(%eax)
 8049947:	c7 40 04 72 3a 20 43 	movl   $0x43203a72,0x4(%eax)
 804994e:	c7 40 08 6c 69 65 6e 	movl   $0x6e65696c,0x8(%eax)
 8049955:	c7 40 0c 74 20 75 6e 	movl   $0x6e752074,0xc(%eax)
 804995c:	c7 40 10 61 62 6c 65 	movl   $0x656c6261,0x10(%eax)
 8049963:	c7 40 14 20 74 6f 20 	movl   $0x206f7420,0x14(%eax)
 804996a:	c7 40 18 72 65 61 64 	movl   $0x64616572,0x18(%eax)
 8049971:	c7 40 1c 20 68 65 61 	movl   $0x61656820,0x1c(%eax)
 8049978:	c7 40 20 64 65 72 73 	movl   $0x73726564,0x20(%eax)
 804997f:	c7 40 24 20 66 72 6f 	movl   $0x6f726620,0x24(%eax)
 8049986:	c7 40 28 6d 20 73 65 	movl   $0x6573206d,0x28(%eax)
 804998d:	c7 40 2c 72 76 65 72 	movl   $0x72657672,0x2c(%eax)
 8049994:	c6 40 30 00          	movb   $0x0,0x30(%eax)
 8049998:	83 ec 0c             	sub    $0xc,%esp
 804999b:	55                   	push   %ebp
 804999c:	e8 ff ee ff ff       	call   80488a0 <close@plt>
 80499a1:	83 c4 10             	add    $0x10,%esp
 80499a4:	b8 ff ff ff ff       	mov    $0xffffffff,%eax
 80499a9:	e9 b1 00 00 00       	jmp    8049a5f <submitr+0x697>
 80499ae:	85 c0                	test   %eax,%eax
 80499b0:	74 4b                	je     80499fd <submitr+0x635>
 80499b2:	b9 00 20 00 00       	mov    $0x2000,%ecx
 80499b7:	8d 94 24 4c 20 00 00 	lea    0x204c(%esp),%edx
 80499be:	8d 44 24 40          	lea    0x40(%esp),%eax
 80499c2:	e8 50 f9 ff ff       	call   8049317 <rio_readlineb>
 80499c7:	85 c0                	test   %eax,%eax
 80499c9:	0f 8e 6e ff ff ff    	jle    804993d <submitr+0x575>
 80499cf:	0f b6 94 24 4c 20 00 	movzbl 0x204c(%esp),%edx
 80499d6:	00 
 80499d7:	b8 0d 00 00 00       	mov    $0xd,%eax
 80499dc:	29 d0                	sub    %edx,%eax
 80499de:	75 ce                	jne    80499ae <submitr+0x5e6>
 80499e0:	0f b6 94 24 4d 20 00 	movzbl 0x204d(%esp),%edx
 80499e7:	00 
 80499e8:	b8 0a 00 00 00       	mov    $0xa,%eax
 80499ed:	29 d0                	sub    %edx,%eax
 80499ef:	75 bd                	jne    80499ae <submitr+0x5e6>
 80499f1:	0f b6 84 24 4e 20 00 	movzbl 0x204e(%esp),%eax
 80499f8:	00 
 80499f9:	f7 d8                	neg    %eax
 80499fb:	eb b1                	jmp    80499ae <submitr+0x5e6>
 80499fd:	b9 00 20 00 00       	mov    $0x2000,%ecx
 8049a02:	8d 94 24 4c 20 00 00 	lea    0x204c(%esp),%edx
 8049a09:	8d 44 24 40          	lea    0x40(%esp),%eax
 8049a0d:	e8 05 f9 ff ff       	call   8049317 <rio_readlineb>
 8049a12:	85 c0                	test   %eax,%eax
 8049a14:	7e 68                	jle    8049a7e <submitr+0x6b6>
 8049a16:	83 ec 08             	sub    $0x8,%esp
 8049a19:	8d 84 24 54 20 00 00 	lea    0x2054(%esp),%eax
 8049a20:	50                   	push   %eax
 8049a21:	8b 7c 24 20          	mov    0x20(%esp),%edi
 8049a25:	57                   	push   %edi
 8049a26:	e8 75 ed ff ff       	call   80487a0 <strcpy@plt>
 8049a2b:	89 2c 24             	mov    %ebp,(%esp)
 8049a2e:	e8 6d ee ff ff       	call   80488a0 <close@plt>
 8049a33:	0f b6 17             	movzbl (%edi),%edx
 8049a36:	b8 4f 00 00 00       	mov    $0x4f,%eax
 8049a3b:	83 c4 10             	add    $0x10,%esp
 8049a3e:	29 d0                	sub    %edx,%eax
 8049a40:	75 13                	jne    8049a55 <submitr+0x68d>
 8049a42:	0f b6 57 01          	movzbl 0x1(%edi),%edx
 8049a46:	b8 4b 00 00 00       	mov    $0x4b,%eax
 8049a4b:	29 d0                	sub    %edx,%eax
 8049a4d:	75 06                	jne    8049a55 <submitr+0x68d>
 8049a4f:	0f b6 47 02          	movzbl 0x2(%edi),%eax
 8049a53:	f7 d8                	neg    %eax
 8049a55:	85 c0                	test   %eax,%eax
 8049a57:	0f 95 c0             	setne  %al
 8049a5a:	0f b6 c0             	movzbl %al,%eax
 8049a5d:	f7 d8                	neg    %eax
 8049a5f:	8b bc 24 4c a0 00 00 	mov    0xa04c(%esp),%edi
 8049a66:	65 33 3d 14 00 00 00 	xor    %gs:0x14,%edi
 8049a6d:	0f 85 2a 01 00 00    	jne    8049b9d <submitr+0x7d5>
 8049a73:	81 c4 5c a0 00 00    	add    $0xa05c,%esp
 8049a79:	5b                   	pop    %ebx
 8049a7a:	5e                   	pop    %esi
 8049a7b:	5f                   	pop    %edi
 8049a7c:	5d                   	pop    %ebp
 8049a7d:	c3                   	ret    
 8049a7e:	8b 44 24 14          	mov    0x14(%esp),%eax
 8049a82:	c7 00 45 72 72 6f    	movl   $0x6f727245,(%eax)
 8049a88:	c7 40 04 72 3a 20 43 	movl   $0x43203a72,0x4(%eax)
 8049a8f:	c7 40 08 6c 69 65 6e 	movl   $0x6e65696c,0x8(%eax)
 8049a96:	c7 40 0c 74 20 75 6e 	movl   $0x6e752074,0xc(%eax)
 8049a9d:	c7 40 10 61 62 6c 65 	movl   $0x656c6261,0x10(%eax)
 8049aa4:	c7 40 14 20 74 6f 20 	movl   $0x206f7420,0x14(%eax)
 8049aab:	c7 40 18 72 65 61 64 	movl   $0x64616572,0x18(%eax)
 8049ab2:	c7 40 1c 20 73 74 61 	movl   $0x61747320,0x1c(%eax)
 8049ab9:	c7 40 20 74 75 73 20 	movl   $0x20737574,0x20(%eax)
 8049ac0:	c7 40 24 6d 65 73 73 	movl   $0x7373656d,0x24(%eax)
 8049ac7:	c7 40 28 61 67 65 20 	movl   $0x20656761,0x28(%eax)
 8049ace:	c7 40 2c 66 72 6f 6d 	movl   $0x6d6f7266,0x2c(%eax)
 8049ad5:	c7 40 30 20 73 65 72 	movl   $0x72657320,0x30(%eax)
 8049adc:	c7 40 34 76 65 72 00 	movl   $0x726576,0x34(%eax)
 8049ae3:	83 ec 0c             	sub    $0xc,%esp
 8049ae6:	55                   	push   %ebp
 8049ae7:	e8 b4 ed ff ff       	call   80488a0 <close@plt>
 8049aec:	83 c4 10             	add    $0x10,%esp
 8049aef:	b8 ff ff ff ff       	mov    $0xffffffff,%eax
 8049af4:	e9 66 ff ff ff       	jmp    8049a5f <submitr+0x697>
 8049af9:	a1 a8 a2 04 08       	mov    0x804a2a8,%eax
 8049afe:	8b 5c 24 14          	mov    0x14(%esp),%ebx
 8049b02:	89 03                	mov    %eax,(%ebx)
 8049b04:	a1 e7 a2 04 08       	mov    0x804a2e7,%eax
 8049b09:	89 43 3f             	mov    %eax,0x3f(%ebx)
 8049b0c:	8d 7b 04             	lea    0x4(%ebx),%edi
 8049b0f:	83 e7 fc             	and    $0xfffffffc,%edi
 8049b12:	29 fb                	sub    %edi,%ebx
 8049b14:	89 d8                	mov    %ebx,%eax
 8049b16:	be a8 a2 04 08       	mov    $0x804a2a8,%esi
 8049b1b:	29 de                	sub    %ebx,%esi
 8049b1d:	83 c0 43             	add    $0x43,%eax
 8049b20:	c1 e8 02             	shr    $0x2,%eax
 8049b23:	89 c1                	mov    %eax,%ecx
 8049b25:	f3 a5                	rep movsl %ds:(%esi),%es:(%edi)
 8049b27:	83 ec 0c             	sub    $0xc,%esp
 8049b2a:	55                   	push   %ebp
 8049b2b:	e8 70 ed ff ff       	call   80488a0 <close@plt>
 8049b30:	83 c4 10             	add    $0x10,%esp
 8049b33:	b8 ff ff ff ff       	mov    $0xffffffff,%eax
 8049b38:	e9 22 ff ff ff       	jmp    8049a5f <submitr+0x697>
 8049b3d:	8d 84 24 4c 40 00 00 	lea    0x404c(%esp),%eax
 8049b44:	50                   	push   %eax
 8049b45:	ff 74 24 14          	push   0x14(%esp)
 8049b49:	ff 74 24 14          	push   0x14(%esp)
 8049b4d:	ff 74 24 14          	push   0x14(%esp)
 8049b51:	68 ec a2 04 08       	push   $0x804a2ec
 8049b56:	68 00 20 00 00       	push   $0x2000
 8049b5b:	6a 01                	push   $0x1
 8049b5d:	8d bc 24 68 20 00 00 	lea    0x2068(%esp),%edi
 8049b64:	57                   	push   %edi
 8049b65:	e8 56 ed ff ff       	call   80488c0 <__sprintf_chk@plt>
 8049b6a:	b8 00 00 00 00       	mov    $0x0,%eax
 8049b6f:	b9 ff ff ff ff       	mov    $0xffffffff,%ecx
 8049b74:	f2 ae                	repnz scas %es:(%edi),%al
 8049b76:	f7 d1                	not    %ecx
 8049b78:	8d 41 ff             	lea    -0x1(%ecx),%eax
 8049b7b:	89 44 24 28          	mov    %eax,0x28(%esp)
 8049b7f:	83 c4 20             	add    $0x20,%esp
 8049b82:	89 c3                	mov    %eax,%ebx
 8049b84:	8d b4 24 4c 20 00 00 	lea    0x204c(%esp),%esi
 8049b8b:	bf 00 00 00 00       	mov    $0x0,%edi
 8049b90:	85 c0                	test   %eax,%eax
 8049b92:	0f 85 f5 fb ff ff    	jne    804978d <submitr+0x3c5>
 8049b98:	e9 1f fc ff ff       	jmp    80497bc <submitr+0x3f4>
 8049b9d:	e8 ee eb ff ff       	call   8048790 <__stack_chk_fail@plt>

08049ba2 <init_timeout>:
 8049ba2:	53                   	push   %ebx
 8049ba3:	83 ec 08             	sub    $0x8,%esp
 8049ba6:	8b 5c 24 10          	mov    0x10(%esp),%ebx
 8049baa:	85 db                	test   %ebx,%ebx
 8049bac:	74 24                	je     8049bd2 <init_timeout+0x30>
 8049bae:	83 ec 08             	sub    $0x8,%esp
 8049bb1:	68 f4 92 04 08       	push   $0x80492f4
 8049bb6:	6a 0e                	push   $0xe
 8049bb8:	e8 a3 eb ff ff       	call   8048760 <signal@plt>
 8049bbd:	85 db                	test   %ebx,%ebx
 8049bbf:	b8 00 00 00 00       	mov    $0x0,%eax
 8049bc4:	0f 48 d8             	cmovs  %eax,%ebx
 8049bc7:	89 1c 24             	mov    %ebx,(%esp)
 8049bca:	e8 b1 eb ff ff       	call   8048780 <alarm@plt>
 8049bcf:	83 c4 10             	add    $0x10,%esp
 8049bd2:	83 c4 08             	add    $0x8,%esp
 8049bd5:	5b                   	pop    %ebx
 8049bd6:	c3                   	ret    

08049bd7 <init_driver>:
 8049bd7:	57                   	push   %edi
 8049bd8:	56                   	push   %esi
 8049bd9:	53                   	push   %ebx
 8049bda:	83 ec 28             	sub    $0x28,%esp
 8049bdd:	8b 74 24 38          	mov    0x38(%esp),%esi
 8049be1:	65 a1 14 00 00 00    	mov    %gs:0x14,%eax
 8049be7:	89 44 24 24          	mov    %eax,0x24(%esp)
 8049beb:	31 c0                	xor    %eax,%eax
 8049bed:	6a 01                	push   $0x1
 8049bef:	6a 0d                	push   $0xd
 8049bf1:	e8 6a eb ff ff       	call   8048760 <signal@plt>
 8049bf6:	83 c4 08             	add    $0x8,%esp
 8049bf9:	6a 01                	push   $0x1
 8049bfb:	6a 1d                	push   $0x1d
 8049bfd:	e8 5e eb ff ff       	call   8048760 <signal@plt>
 8049c02:	83 c4 08             	add    $0x8,%esp
 8049c05:	6a 01                	push   $0x1
 8049c07:	6a 1d                	push   $0x1d
 8049c09:	e8 52 eb ff ff       	call   8048760 <signal@plt>
 8049c0e:	83 c4 0c             	add    $0xc,%esp
 8049c11:	6a 00                	push   $0x0
 8049c13:	6a 01                	push   $0x1
 8049c15:	6a 02                	push   $0x2
 8049c17:	e8 34 ec ff ff       	call   8048850 <socket@plt>
 8049c1c:	83 c4 10             	add    $0x10,%esp
 8049c1f:	85 c0                	test   %eax,%eax
 8049c21:	0f 88 a9 00 00 00    	js     8049cd0 <init_driver+0xf9>
 8049c27:	89 c3                	mov    %eax,%ebx
 8049c29:	83 ec 0c             	sub    $0xc,%esp
 8049c2c:	68 78 a3 04 08       	push   $0x804a378
 8049c31:	e8 3a ec ff ff       	call   8048870 <gethostbyname@plt>
 8049c36:	83 c4 10             	add    $0x10,%esp
 8049c39:	85 c0                	test   %eax,%eax
 8049c3b:	0f 84 da 00 00 00    	je     8049d1b <init_driver+0x144>
 8049c41:	8d 7c 24 0c          	lea    0xc(%esp),%edi
 8049c45:	c7 44 24 0c 00 00 00 	movl   $0x0,0xc(%esp)
 8049c4c:	00 
 8049c4d:	c7 44 24 10 00 00 00 	movl   $0x0,0x10(%esp)
 8049c54:	00 
 8049c55:	c7 44 24 14 00 00 00 	movl   $0x0,0x14(%esp)
 8049c5c:	00 
 8049c5d:	c7 44 24 18 00 00 00 	movl   $0x0,0x18(%esp)
 8049c64:	00 
 8049c65:	66 c7 44 24 0c 02 00 	movw   $0x2,0xc(%esp)
 8049c6c:	6a 0c                	push   $0xc
 8049c6e:	ff 70 0c             	push   0xc(%eax)
 8049c71:	8b 40 10             	mov    0x10(%eax),%eax
 8049c74:	ff 30                	push   (%eax)
 8049c76:	8d 44 24 1c          	lea    0x1c(%esp),%eax
 8049c7a:	50                   	push   %eax
 8049c7b:	e8 50 eb ff ff       	call   80487d0 <__memmove_chk@plt>
 8049c80:	66 c7 44 24 1e 3b 6e 	movw   $0x6e3b,0x1e(%esp)
 8049c87:	83 c4 0c             	add    $0xc,%esp
 8049c8a:	6a 10                	push   $0x10
 8049c8c:	57                   	push   %edi
 8049c8d:	53                   	push   %ebx
 8049c8e:	e8 fd eb ff ff       	call   8048890 <connect@plt>
 8049c93:	83 c4 10             	add    $0x10,%esp
 8049c96:	85 c0                	test   %eax,%eax
 8049c98:	0f 88 e9 00 00 00    	js     8049d87 <init_driver+0x1b0>
 8049c9e:	83 ec 0c             	sub    $0xc,%esp
 8049ca1:	53                   	push   %ebx
 8049ca2:	e8 f9 eb ff ff       	call   80488a0 <close@plt>
 8049ca7:	66 c7 06 4f 4b       	movw   $0x4b4f,(%esi)
 8049cac:	c6 46 02 00          	movb   $0x0,0x2(%esi)
 8049cb0:	83 c4 10             	add    $0x10,%esp
 8049cb3:	b8 00 00 00 00       	mov    $0x0,%eax
 8049cb8:	8b 54 24 1c          	mov    0x1c(%esp),%edx
 8049cbc:	65 33 15 14 00 00 00 	xor    %gs:0x14,%edx
 8049cc3:	0f 85 eb 00 00 00    	jne    8049db4 <init_driver+0x1dd>
 8049cc9:	83 c4 20             	add    $0x20,%esp
 8049ccc:	5b                   	pop    %ebx
 8049ccd:	5e                   	pop    %esi
 8049cce:	5f                   	pop    %edi
 8049ccf:	c3                   	ret    
 8049cd0:	c7 06 45 72 72 6f    	movl   $0x6f727245,(%esi)
 8049cd6:	c7 46 04 72 3a 20 43 	movl   $0x43203a72,0x4(%esi)
 8049cdd:	c7 46 08 6c 69 65 6e 	movl   $0x6e65696c,0x8(%esi)
 8049ce4:	c7 46 0c 74 20 75 6e 	movl   $0x6e752074,0xc(%esi)
 8049ceb:	c7 46 10 61 62 6c 65 	movl   $0x656c6261,0x10(%esi)
 8049cf2:	c7 46 14 20 74 6f 20 	movl   $0x206f7420,0x14(%esi)
 8049cf9:	c7 46 18 63 72 65 61 	movl   $0x61657263,0x18(%esi)
 8049d00:	c7 46 1c 74 65 20 73 	movl   $0x73206574,0x1c(%esi)
 8049d07:	c7 46 20 6f 63 6b 65 	movl   $0x656b636f,0x20(%esi)
 8049d0e:	66 c7 46 24 74 00    	movw   $0x74,0x24(%esi)
 8049d14:	b8 ff ff ff ff       	mov    $0xffffffff,%eax
 8049d19:	eb 9d                	jmp    8049cb8 <init_driver+0xe1>
 8049d1b:	c7 06 45 72 72 6f    	movl   $0x6f727245,(%esi)
 8049d21:	c7 46 04 72 3a 20 44 	movl   $0x44203a72,0x4(%esi)
 8049d28:	c7 46 08 4e 53 20 69 	movl   $0x6920534e,0x8(%esi)
 8049d2f:	c7 46 0c 73 20 75 6e 	movl   $0x6e752073,0xc(%esi)
 8049d36:	c7 46 10 61 62 6c 65 	movl   $0x656c6261,0x10(%esi)
 8049d3d:	c7 46 14 20 74 6f 20 	movl   $0x206f7420,0x14(%esi)
 8049d44:	c7 46 18 72 65 73 6f 	movl   $0x6f736572,0x18(%esi)
 8049d4b:	c7 46 1c 6c 76 65 20 	movl   $0x2065766c,0x1c(%esi)
 8049d52:	c7 46 20 73 65 72 76 	movl   $0x76726573,0x20(%esi)
 8049d59:	c7 46 24 65 72 20 61 	movl   $0x61207265,0x24(%esi)
 8049d60:	c7 46 28 64 64 72 65 	movl   $0x65726464,0x28(%esi)
 8049d67:	66 c7 46 2c 73 73    	movw   $0x7373,0x2c(%esi)
 8049d6d:	c6 46 2e 00          	movb   $0x0,0x2e(%esi)
 8049d71:	83 ec 0c             	sub    $0xc,%esp
 8049d74:	53                   	push   %ebx
 8049d75:	e8 26 eb ff ff       	call   80488a0 <close@plt>
 8049d7a:	83 c4 10             	add    $0x10,%esp
 8049d7d:	b8 ff ff ff ff       	mov    $0xffffffff,%eax
 8049d82:	e9 31 ff ff ff       	jmp    8049cb8 <init_driver+0xe1>
 8049d87:	83 ec 0c             	sub    $0xc,%esp
 8049d8a:	68 78 a3 04 08       	push   $0x804a378
 8049d8f:	68 38 a3 04 08       	push   $0x804a338
 8049d94:	6a ff                	push   $0xffffffff
 8049d96:	6a 01                	push   $0x1
 8049d98:	56                   	push   %esi
 8049d99:	e8 22 eb ff ff       	call   80488c0 <__sprintf_chk@plt>
 8049d9e:	83 c4 14             	add    $0x14,%esp
 8049da1:	53                   	push   %ebx
 8049da2:	e8 f9 ea ff ff       	call   80488a0 <close@plt>
 8049da7:	83 c4 10             	add    $0x10,%esp
 8049daa:	b8 ff ff ff ff       	mov    $0xffffffff,%eax
 8049daf:	e9 04 ff ff ff       	jmp    8049cb8 <init_driver+0xe1>
 8049db4:	e8 d7 e9 ff ff       	call   8048790 <__stack_chk_fail@plt>

08049db9 <driver_post>:
 8049db9:	53                   	push   %ebx
 8049dba:	83 ec 08             	sub    $0x8,%esp
 8049dbd:	8b 54 24 10          	mov    0x10(%esp),%edx
 8049dc1:	8b 44 24 18          	mov    0x18(%esp),%eax
 8049dc5:	8b 5c 24 1c          	mov    0x1c(%esp),%ebx
 8049dc9:	85 c0                	test   %eax,%eax
 8049dcb:	75 17                	jne    8049de4 <driver_post+0x2b>
 8049dcd:	85 d2                	test   %edx,%edx
 8049dcf:	74 05                	je     8049dd6 <driver_post+0x1d>
 8049dd1:	80 3a 00             	cmpb   $0x0,(%edx)
 8049dd4:	75 34                	jne    8049e0a <driver_post+0x51>
 8049dd6:	66 c7 03 4f 4b       	movw   $0x4b4f,(%ebx)
 8049ddb:	c6 43 02 00          	movb   $0x0,0x2(%ebx)
 8049ddf:	83 c4 08             	add    $0x8,%esp
 8049de2:	5b                   	pop    %ebx
 8049de3:	c3                   	ret    
 8049de4:	83 ec 04             	sub    $0x4,%esp
 8049de7:	ff 74 24 18          	push   0x18(%esp)
 8049deb:	68 86 a3 04 08       	push   $0x804a386
 8049df0:	6a 01                	push   $0x1
 8049df2:	e8 49 ea ff ff       	call   8048840 <__printf_chk@plt>
 8049df7:	66 c7 03 4f 4b       	movw   $0x4b4f,(%ebx)
 8049dfc:	c6 43 02 00          	movb   $0x0,0x2(%ebx)
 8049e00:	83 c4 10             	add    $0x10,%esp
 8049e03:	b8 00 00 00 00       	mov    $0x0,%eax
 8049e08:	eb d5                	jmp    8049ddf <driver_post+0x26>
 8049e0a:	83 ec 04             	sub    $0x4,%esp
 8049e0d:	53                   	push   %ebx
 8049e0e:	ff 74 24 1c          	push   0x1c(%esp)
 8049e12:	68 9d a3 04 08       	push   $0x804a39d
 8049e17:	52                   	push   %edx
 8049e18:	68 a5 a3 04 08       	push   $0x804a3a5
 8049e1d:	68 6e 3b 00 00       	push   $0x3b6e
 8049e22:	68 78 a3 04 08       	push   $0x804a378
 8049e27:	e8 9c f5 ff ff       	call   80493c8 <submitr>
 8049e2c:	83 c4 20             	add    $0x20,%esp
 8049e2f:	eb ae                	jmp    8049ddf <driver_post+0x26>
 8049e31:	66 90                	xchg   %ax,%ax
 8049e33:	66 90                	xchg   %ax,%ax
 8049e35:	66 90                	xchg   %ax,%ax
 8049e37:	66 90                	xchg   %ax,%ax
 8049e39:	66 90                	xchg   %ax,%ax
 8049e3b:	66 90                	xchg   %ax,%ax
 8049e3d:	66 90                	xchg   %ax,%ax
 8049e3f:	90                   	nop

08049e40 <__libc_csu_init>:
 8049e40:	55                   	push   %ebp
 8049e41:	57                   	push   %edi
 8049e42:	56                   	push   %esi
 8049e43:	53                   	push   %ebx
 8049e44:	e8 c7 ea ff ff       	call   8048910 <__x86.get_pc_thunk.bx>
 8049e49:	81 c3 b7 21 00 00    	add    $0x21b7,%ebx
 8049e4f:	83 ec 0c             	sub    $0xc,%esp
 8049e52:	8b 6c 24 20          	mov    0x20(%esp),%ebp
 8049e56:	8d b3 0c ff ff ff    	lea    -0xf4(%ebx),%esi
 8049e5c:	e8 93 e8 ff ff       	call   80486f4 <_init>
 8049e61:	8d 83 08 ff ff ff    	lea    -0xf8(%ebx),%eax
 8049e67:	29 c6                	sub    %eax,%esi
 8049e69:	c1 fe 02             	sar    $0x2,%esi
 8049e6c:	85 f6                	test   %esi,%esi
 8049e6e:	74 25                	je     8049e95 <__libc_csu_init+0x55>
 8049e70:	31 ff                	xor    %edi,%edi
 8049e72:	8d b6 00 00 00 00    	lea    0x0(%esi),%esi
 8049e78:	83 ec 04             	sub    $0x4,%esp
 8049e7b:	ff 74 24 2c          	push   0x2c(%esp)
 8049e7f:	ff 74 24 2c          	push   0x2c(%esp)
 8049e83:	55                   	push   %ebp
 8049e84:	ff 94 bb 08 ff ff ff 	call   *-0xf8(%ebx,%edi,4)
 8049e8b:	83 c7 01             	add    $0x1,%edi
 8049e8e:	83 c4 10             	add    $0x10,%esp
 8049e91:	39 fe                	cmp    %edi,%esi
 8049e93:	75 e3                	jne    8049e78 <__libc_csu_init+0x38>
 8049e95:	83 c4 0c             	add    $0xc,%esp
 8049e98:	5b                   	pop    %ebx
 8049e99:	5e                   	pop    %esi
 8049e9a:	5f                   	pop    %edi
 8049e9b:	5d                   	pop    %ebp
 8049e9c:	c3                   	ret    
 8049e9d:	8d 76 00             	lea    0x0(%esi),%esi

08049ea0 <__libc_csu_fini>:
 8049ea0:	f3 c3                	repz ret 

Disassembly of section .fini:

08049ea4 <_fini>:
 8049ea4:	53                   	push   %ebx
 8049ea5:	83 ec 08             	sub    $0x8,%esp
 8049ea8:	e8 63 ea ff ff       	call   8048910 <__x86.get_pc_thunk.bx>
 8049ead:	81 c3 53 21 00 00    	add    $0x2153,%ebx
 8049eb3:	83 c4 08             	add    $0x8,%esp
 8049eb6:	5b                   	pop    %ebx
 8049eb7:	c3                   	ret    
